Archive member included to satisfy reference by file (symbol)

c:/program files/microchip/xc32/v3.01/bin/bin/../../lib/gcc/pic32c/8.3.1/../../../../pic32c/lib/thumb/v7e-m+fp/hard\libpic32c.a(data_init.o)
                              build/sam_e54_xpro_winc1500/production/_ext/231993977/startup_xc32.o (__pic32c_data_initialization)
c:/program files/microchip/xc32/v3.01/bin/bin/../../lib/gcc/pic32c/8.3.1/thumb/v7e-m+fp/hard\libgcc.a(_aeabi_uldivmod.o)
                              build/sam_e54_xpro_winc1500/production/_ext/923560386/plib_sercom2_usart.o (__aeabi_uldivmod)
c:/program files/microchip/xc32/v3.01/bin/bin/../../lib/gcc/pic32c/8.3.1/thumb/v7e-m+fp/hard\libgcc.a(_udivmoddi4.o)
                              c:/program files/microchip/xc32/v3.01/bin/bin/../../lib/gcc/pic32c/8.3.1/thumb/v7e-m+fp/hard\libgcc.a(_aeabi_uldivmod.o) (__udivmoddi4)
c:/program files/microchip/xc32/v3.01/bin/bin/../../lib/gcc/pic32c/8.3.1/thumb/v7e-m+fp/hard\libgcc.a(_dvmd_tls.o)
                              c:/program files/microchip/xc32/v3.01/bin/bin/../../lib/gcc/pic32c/8.3.1/thumb/v7e-m+fp/hard\libgcc.a(_aeabi_uldivmod.o) (__aeabi_ldiv0)
c:/program files/microchip/xc32/v3.01/bin/bin/../../lib/gcc/pic32c/8.3.1/../../../../pic32c/lib/thumb/v7e-m+fp/hard\libc_nano.a(lib_a-gmtime.o)
                              build/sam_e54_xpro_winc1500/production/_ext/810064134/wdrv_winc_systime.o (gmtime)
c:/program files/microchip/xc32/v3.01/bin/bin/../../lib/gcc/pic32c/8.3.1/../../../../pic32c/lib/thumb/v7e-m+fp/hard\libc_nano.a(lib_a-gmtime_r.o)
                              c:/program files/microchip/xc32/v3.01/bin/bin/../../lib/gcc/pic32c/8.3.1/../../../../pic32c/lib/thumb/v7e-m+fp/hard\libc_nano.a(lib_a-gmtime.o) (gmtime_r)
c:/program files/microchip/xc32/v3.01/bin/bin/../../lib/gcc/pic32c/8.3.1/../../../../pic32c/lib/thumb/v7e-m+fp/hard\libc_nano.a(lib_a-impure.o)
                              c:/program files/microchip/xc32/v3.01/bin/bin/../../lib/gcc/pic32c/8.3.1/../../../../pic32c/lib/thumb/v7e-m+fp/hard\libc_nano.a(lib_a-gmtime.o) (_impure_ptr)
c:/program files/microchip/xc32/v3.01/bin/bin/../../lib/gcc/pic32c/8.3.1/../../../../pic32c/lib/thumb/v7e-m+fp/hard\libc_nano.a(lib_a-init.o)
                              build/sam_e54_xpro_winc1500/production/_ext/231993977/startup_xc32.o (__libc_init_array)
c:/program files/microchip/xc32/v3.01/bin/bin/../../lib/gcc/pic32c/8.3.1/../../../../pic32c/lib/thumb/v7e-m+fp/hard\libc_nano.a(lib_a-malloc.o)
                              build/sam_e54_xpro_winc1500/production/_ext/1089847528/m2m_wifi.o (malloc)
c:/program files/microchip/xc32/v3.01/bin/bin/../../lib/gcc/pic32c/8.3.1/../../../../pic32c/lib/thumb/v7e-m+fp/hard\libc_nano.a(lib_a-memcpy-stub.o)
                              build/sam_e54_xpro_winc1500/production/_ext/1089847528/m2m_wifi.o (memcpy)
c:/program files/microchip/xc32/v3.01/bin/bin/../../lib/gcc/pic32c/8.3.1/../../../../pic32c/lib/thumb/v7e-m+fp/hard\libc_nano.a(lib_a-memset.o)
                              build/sam_e54_xpro_winc1500/production/_ext/1089847528/m2m_hif.o (memset)
c:/program files/microchip/xc32/v3.01/bin/bin/../../lib/gcc/pic32c/8.3.1/../../../../pic32c/lib/thumb/v7e-m+fp/hard\libc_nano.a(lib_a-mktime.o)
                              build/sam_e54_xpro_winc1500/production/_ext/810064134/wdrv_winc_systime.o (mktime)
c:/program files/microchip/xc32/v3.01/bin/bin/../../lib/gcc/pic32c/8.3.1/../../../../pic32c/lib/thumb/v7e-m+fp/hard\libc_nano.a(lib_a-nano-freer.o)
                              c:/program files/microchip/xc32/v3.01/bin/bin/../../lib/gcc/pic32c/8.3.1/../../../../pic32c/lib/thumb/v7e-m+fp/hard\libc_nano.a(lib_a-malloc.o) (_free_r)
c:/program files/microchip/xc32/v3.01/bin/bin/../../lib/gcc/pic32c/8.3.1/../../../../pic32c/lib/thumb/v7e-m+fp/hard\libc_nano.a(lib_a-nano-mallocr.o)
                              c:/program files/microchip/xc32/v3.01/bin/bin/../../lib/gcc/pic32c/8.3.1/../../../../pic32c/lib/thumb/v7e-m+fp/hard\libc_nano.a(lib_a-malloc.o) (_malloc_r)
c:/program files/microchip/xc32/v3.01/bin/bin/../../lib/gcc/pic32c/8.3.1/../../../../pic32c/lib/thumb/v7e-m+fp/hard\libc_nano.a(lib_a-sbrkr.o)
                              c:/program files/microchip/xc32/v3.01/bin/bin/../../lib/gcc/pic32c/8.3.1/../../../../pic32c/lib/thumb/v7e-m+fp/hard\libc_nano.a(lib_a-nano-mallocr.o) (_sbrk_r)
c:/program files/microchip/xc32/v3.01/bin/bin/../../lib/gcc/pic32c/8.3.1/../../../../pic32c/lib/thumb/v7e-m+fp/hard\libc_nano.a(lib_a-sprintf.o)
                              (sprintf)
c:/program files/microchip/xc32/v3.01/bin/bin/../../lib/gcc/pic32c/8.3.1/../../../../pic32c/lib/thumb/v7e-m+fp/hard\libc_nano.a(lib_a-strchr.o)
                              build/sam_e54_xpro_winc1500/production/_ext/810064134/wdrv_winc_authctx.o (strchr)
c:/program files/microchip/xc32/v3.01/bin/bin/../../lib/gcc/pic32c/8.3.1/../../../../pic32c/lib/thumb/v7e-m+fp/hard\libc_nano.a(lib_a-strlen.o)
                              build/sam_e54_xpro_winc1500/production/_ext/1089847528/m2m_wifi.o (strlen)
c:/program files/microchip/xc32/v3.01/bin/bin/../../lib/gcc/pic32c/8.3.1/../../../../pic32c/lib/thumb/v7e-m+fp/hard\libc_nano.a(lib_a-tzcalc_limits.o)
                              c:/program files/microchip/xc32/v3.01/bin/bin/../../lib/gcc/pic32c/8.3.1/../../../../pic32c/lib/thumb/v7e-m+fp/hard\libc_nano.a(lib_a-mktime.o) (__tzcalc_limits)
c:/program files/microchip/xc32/v3.01/bin/bin/../../lib/gcc/pic32c/8.3.1/../../../../pic32c/lib/thumb/v7e-m+fp/hard\libc_nano.a(lib_a-tzset.o)
                              c:/program files/microchip/xc32/v3.01/bin/bin/../../lib/gcc/pic32c/8.3.1/../../../../pic32c/lib/thumb/v7e-m+fp/hard\libc_nano.a(lib_a-mktime.o) (_tzset_unlocked)
c:/program files/microchip/xc32/v3.01/bin/bin/../../lib/gcc/pic32c/8.3.1/../../../../pic32c/lib/thumb/v7e-m+fp/hard\libc_nano.a(lib_a-tzset_r.o)
                              c:/program files/microchip/xc32/v3.01/bin/bin/../../lib/gcc/pic32c/8.3.1/../../../../pic32c/lib/thumb/v7e-m+fp/hard\libc_nano.a(lib_a-tzset.o) (_tzset_unlocked_r)
c:/program files/microchip/xc32/v3.01/bin/bin/../../lib/gcc/pic32c/8.3.1/../../../../pic32c/lib/thumb/v7e-m+fp/hard\libc_nano.a(lib_a-tzvars.o)
                              c:/program files/microchip/xc32/v3.01/bin/bin/../../lib/gcc/pic32c/8.3.1/../../../../pic32c/lib/thumb/v7e-m+fp/hard\libc_nano.a(lib_a-tzset_r.o) (_timezone)
c:/program files/microchip/xc32/v3.01/bin/bin/../../lib/gcc/pic32c/8.3.1/../../../../pic32c/lib/thumb/v7e-m+fp/hard\libc_nano.a(lib_a-vsnprintf.o)
                              build/sam_e54_xpro_winc1500/production/_ext/501133612/sys_console.o (vsnprintf)
c:/program files/microchip/xc32/v3.01/bin/bin/../../lib/gcc/pic32c/8.3.1/../../../../pic32c/lib/thumb/v7e-m+fp/hard\libc_nano.a(lib_a-div.o)
                              c:/program files/microchip/xc32/v3.01/bin/bin/../../lib/gcc/pic32c/8.3.1/../../../../pic32c/lib/thumb/v7e-m+fp/hard\libc_nano.a(lib_a-mktime.o) (div)
c:/program files/microchip/xc32/v3.01/bin/bin/../../lib/gcc/pic32c/8.3.1/../../../../pic32c/lib/thumb/v7e-m+fp/hard\libc_nano.a(lib_a-getenv_r.o)
                              c:/program files/microchip/xc32/v3.01/bin/bin/../../lib/gcc/pic32c/8.3.1/../../../../pic32c/lib/thumb/v7e-m+fp/hard\libc_nano.a(lib_a-tzset_r.o) (_getenv_r)
c:/program files/microchip/xc32/v3.01/bin/bin/../../lib/gcc/pic32c/8.3.1/../../../../pic32c/lib/thumb/v7e-m+fp/hard\libc_nano.a(lib_a-gettzinfo.o)
                              c:/program files/microchip/xc32/v3.01/bin/bin/../../lib/gcc/pic32c/8.3.1/../../../../pic32c/lib/thumb/v7e-m+fp/hard\libc_nano.a(lib_a-mktime.o) (__gettzinfo)
c:/program files/microchip/xc32/v3.01/bin/bin/../../lib/gcc/pic32c/8.3.1/../../../../pic32c/lib/thumb/v7e-m+fp/hard\libc_nano.a(lib_a-mlock.o)
                              c:/program files/microchip/xc32/v3.01/bin/bin/../../lib/gcc/pic32c/8.3.1/../../../../pic32c/lib/thumb/v7e-m+fp/hard\libc_nano.a(lib_a-nano-freer.o) (__malloc_lock)
c:/program files/microchip/xc32/v3.01/bin/bin/../../lib/gcc/pic32c/8.3.1/../../../../pic32c/lib/thumb/v7e-m+fp/hard\libc_nano.a(lib_a-month_lengths.o)
                              c:/program files/microchip/xc32/v3.01/bin/bin/../../lib/gcc/pic32c/8.3.1/../../../../pic32c/lib/thumb/v7e-m+fp/hard\libc_nano.a(lib_a-tzcalc_limits.o) (__month_lengths)
c:/program files/microchip/xc32/v3.01/bin/bin/../../lib/gcc/pic32c/8.3.1/../../../../pic32c/lib/thumb/v7e-m+fp/hard\libc_nano.a(lib_a-nano-svfprintf.o)
                              c:/program files/microchip/xc32/v3.01/bin/bin/../../lib/gcc/pic32c/8.3.1/../../../../pic32c/lib/thumb/v7e-m+fp/hard\libc_nano.a(lib_a-sprintf.o) (_svfprintf_r)
c:/program files/microchip/xc32/v3.01/bin/bin/../../lib/gcc/pic32c/8.3.1/../../../../pic32c/lib/thumb/v7e-m+fp/hard\libc_nano.a(lib_a-nano-vfprintf_float.o)
                              c:/program files/microchip/xc32/v3.01/bin/bin/../../lib/gcc/pic32c/8.3.1/../../../../pic32c/lib/thumb/v7e-m+fp/hard\libc_nano.a(lib_a-nano-svfprintf.o) (_printf_float)
c:/program files/microchip/xc32/v3.01/bin/bin/../../lib/gcc/pic32c/8.3.1/../../../../pic32c/lib/thumb/v7e-m+fp/hard\libc_nano.a(lib_a-nano-vfprintf_i.o)
                              c:/program files/microchip/xc32/v3.01/bin/bin/../../lib/gcc/pic32c/8.3.1/../../../../pic32c/lib/thumb/v7e-m+fp/hard\libc_nano.a(lib_a-nano-vfprintf_float.o) (_printf_common)
c:/program files/microchip/xc32/v3.01/bin/bin/../../lib/gcc/pic32c/8.3.1/../../../../pic32c/lib/thumb/v7e-m+fp/hard\libc_nano.a(lib_a-reent.o)
                              c:/program files/microchip/xc32/v3.01/bin/bin/../../lib/gcc/pic32c/8.3.1/../../../../pic32c/lib/thumb/v7e-m+fp/hard\libc_nano.a(lib_a-sbrkr.o) (errno)
c:/program files/microchip/xc32/v3.01/bin/bin/../../lib/gcc/pic32c/8.3.1/../../../../pic32c/lib/thumb/v7e-m+fp/hard\libc_nano.a(lib_a-sscanf.o)
                              c:/program files/microchip/xc32/v3.01/bin/bin/../../lib/gcc/pic32c/8.3.1/../../../../pic32c/lib/thumb/v7e-m+fp/hard\libc_nano.a(lib_a-tzset_r.o) (siscanf)
c:/program files/microchip/xc32/v3.01/bin/bin/../../lib/gcc/pic32c/8.3.1/../../../../pic32c/lib/thumb/v7e-m+fp/hard\libc_nano.a(lib_a-stdio.o)
                              c:/program files/microchip/xc32/v3.01/bin/bin/../../lib/gcc/pic32c/8.3.1/../../../../pic32c/lib/thumb/v7e-m+fp/hard\libc_nano.a(lib_a-sscanf.o) (__seofread)
c:/program files/microchip/xc32/v3.01/bin/bin/../../lib/gcc/pic32c/8.3.1/../../../../pic32c/lib/thumb/v7e-m+fp/hard\libc_nano.a(lib_a-strcmp.o)
                              c:/program files/microchip/xc32/v3.01/bin/bin/../../lib/gcc/pic32c/8.3.1/../../../../pic32c/lib/thumb/v7e-m+fp/hard\libc_nano.a(lib_a-tzset_r.o) (strcmp)
c:/program files/microchip/xc32/v3.01/bin/bin/../../lib/gcc/pic32c/8.3.1/../../../../pic32c/lib/thumb/v7e-m+fp/hard\libc_nano.a(lib_a-strcpy.o)
                              c:/program files/microchip/xc32/v3.01/bin/bin/../../lib/gcc/pic32c/8.3.1/../../../../pic32c/lib/thumb/v7e-m+fp/hard\libc_nano.a(lib_a-tzset_r.o) (strcpy)
c:/program files/microchip/xc32/v3.01/bin/bin/../../lib/gcc/pic32c/8.3.1/../../../../pic32c/lib/thumb/v7e-m+fp/hard\libc_nano.a(lib_a-strncmp.o)
                              c:/program files/microchip/xc32/v3.01/bin/bin/../../lib/gcc/pic32c/8.3.1/../../../../pic32c/lib/thumb/v7e-m+fp/hard\libc_nano.a(lib_a-getenv_r.o) (strncmp)
c:/program files/microchip/xc32/v3.01/bin/bin/../../lib/gcc/pic32c/8.3.1/../../../../pic32c/lib/thumb/v7e-m+fp/hard\libc_nano.a(lib_a-strtoul.o)
                              c:/program files/microchip/xc32/v3.01/bin/bin/../../lib/gcc/pic32c/8.3.1/../../../../pic32c/lib/thumb/v7e-m+fp/hard\libc_nano.a(lib_a-tzset_r.o) (strtoul)
c:/program files/microchip/xc32/v3.01/bin/bin/../../lib/gcc/pic32c/8.3.1/../../../../pic32c/lib/thumb/v7e-m+fp/hard\libc_nano.a(lib_a-writer.o)
                              c:/program files/microchip/xc32/v3.01/bin/bin/../../lib/gcc/pic32c/8.3.1/../../../../pic32c/lib/thumb/v7e-m+fp/hard\libc_nano.a(lib_a-stdio.o) (_write_r)
c:/program files/microchip/xc32/v3.01/bin/bin/../../lib/gcc/pic32c/8.3.1/../../../../pic32c/lib/thumb/v7e-m+fp/hard\libc_nano.a(lib_a-__ssputs.o)
                              c:/program files/microchip/xc32/v3.01/bin/bin/../../lib/gcc/pic32c/8.3.1/../../../../pic32c/lib/thumb/v7e-m+fp/hard\libc_nano.a(lib_a-nano-svfprintf.o) (__ssputs_r)
c:/program files/microchip/xc32/v3.01/bin/bin/../../lib/gcc/pic32c/8.3.1/../../../../pic32c/lib/thumb/v7e-m+fp/hard\libc_nano.a(lib_a-closer.o)
                              c:/program files/microchip/xc32/v3.01/bin/bin/../../lib/gcc/pic32c/8.3.1/../../../../pic32c/lib/thumb/v7e-m+fp/hard\libc_nano.a(lib_a-stdio.o) (_close_r)
c:/program files/microchip/xc32/v3.01/bin/bin/../../lib/gcc/pic32c/8.3.1/../../../../pic32c/lib/thumb/v7e-m+fp/hard\libc_nano.a(lib_a-ctype_.o)
                              c:/program files/microchip/xc32/v3.01/bin/bin/../../lib/gcc/pic32c/8.3.1/../../../../pic32c/lib/thumb/v7e-m+fp/hard\libc_nano.a(lib_a-strtoul.o) (_ctype_)
c:/program files/microchip/xc32/v3.01/bin/bin/../../lib/gcc/pic32c/8.3.1/../../../../pic32c/lib/thumb/v7e-m+fp/hard\libc_nano.a(lib_a-dtoa.o)
                              c:/program files/microchip/xc32/v3.01/bin/bin/../../lib/gcc/pic32c/8.3.1/../../../../pic32c/lib/thumb/v7e-m+fp/hard\libc_nano.a(lib_a-nano-vfprintf_float.o) (_dtoa_r)
c:/program files/microchip/xc32/v3.01/bin/bin/../../lib/gcc/pic32c/8.3.1/../../../../pic32c/lib/thumb/v7e-m+fp/hard\libc_nano.a(lib_a-environ.o)
                              c:/program files/microchip/xc32/v3.01/bin/bin/../../lib/gcc/pic32c/8.3.1/../../../../pic32c/lib/thumb/v7e-m+fp/hard\libc_nano.a(lib_a-getenv_r.o) (environ)
c:/program files/microchip/xc32/v3.01/bin/bin/../../lib/gcc/pic32c/8.3.1/../../../../pic32c/lib/thumb/v7e-m+fp/hard\libc_nano.a(lib_a-envlock.o)
                              c:/program files/microchip/xc32/v3.01/bin/bin/../../lib/gcc/pic32c/8.3.1/../../../../pic32c/lib/thumb/v7e-m+fp/hard\libc_nano.a(lib_a-getenv_r.o) (__env_lock)
c:/program files/microchip/xc32/v3.01/bin/bin/../../lib/gcc/pic32c/8.3.1/../../../../pic32c/lib/thumb/v7e-m+fp/hard\libc_nano.a(lib_a-localeconv.o)
                              c:/program files/microchip/xc32/v3.01/bin/bin/../../lib/gcc/pic32c/8.3.1/../../../../pic32c/lib/thumb/v7e-m+fp/hard\libc_nano.a(lib_a-nano-vfprintf_float.o) (_localeconv_r)
c:/program files/microchip/xc32/v3.01/bin/bin/../../lib/gcc/pic32c/8.3.1/../../../../pic32c/lib/thumb/v7e-m+fp/hard\libc_nano.a(lib_a-lseekr.o)
                              c:/program files/microchip/xc32/v3.01/bin/bin/../../lib/gcc/pic32c/8.3.1/../../../../pic32c/lib/thumb/v7e-m+fp/hard\libc_nano.a(lib_a-stdio.o) (_lseek_r)
c:/program files/microchip/xc32/v3.01/bin/bin/../../lib/gcc/pic32c/8.3.1/../../../../pic32c/lib/thumb/v7e-m+fp/hard\libc_nano.a(lib_a-memchr.o)
                              c:/program files/microchip/xc32/v3.01/bin/bin/../../lib/gcc/pic32c/8.3.1/../../../../pic32c/lib/thumb/v7e-m+fp/hard\libc_nano.a(lib_a-nano-svfprintf.o) (memchr)
c:/program files/microchip/xc32/v3.01/bin/bin/../../lib/gcc/pic32c/8.3.1/../../../../pic32c/lib/thumb/v7e-m+fp/hard\libc_nano.a(lib_a-memmove.o)
                              c:/program files/microchip/xc32/v3.01/bin/bin/../../lib/gcc/pic32c/8.3.1/../../../../pic32c/lib/thumb/v7e-m+fp/hard\libc_nano.a(lib_a-__ssputs.o) (memmove)
c:/program files/microchip/xc32/v3.01/bin/bin/../../lib/gcc/pic32c/8.3.1/../../../../pic32c/lib/thumb/v7e-m+fp/hard\libc_nano.a(lib_a-mprec.o)
                              c:/program files/microchip/xc32/v3.01/bin/bin/../../lib/gcc/pic32c/8.3.1/../../../../pic32c/lib/thumb/v7e-m+fp/hard\libc_nano.a(lib_a-dtoa.o) (_Balloc)
c:/program files/microchip/xc32/v3.01/bin/bin/../../lib/gcc/pic32c/8.3.1/../../../../pic32c/lib/thumb/v7e-m+fp/hard\libc_nano.a(lib_a-nano-callocr.o)
                              c:/program files/microchip/xc32/v3.01/bin/bin/../../lib/gcc/pic32c/8.3.1/../../../../pic32c/lib/thumb/v7e-m+fp/hard\libc_nano.a(lib_a-mprec.o) (_calloc_r)
c:/program files/microchip/xc32/v3.01/bin/bin/../../lib/gcc/pic32c/8.3.1/../../../../pic32c/lib/thumb/v7e-m+fp/hard\libc_nano.a(lib_a-nano-reallocr.o)
                              c:/program files/microchip/xc32/v3.01/bin/bin/../../lib/gcc/pic32c/8.3.1/../../../../pic32c/lib/thumb/v7e-m+fp/hard\libc_nano.a(lib_a-__ssputs.o) (_realloc_r)
c:/program files/microchip/xc32/v3.01/bin/bin/../../lib/gcc/pic32c/8.3.1/../../../../pic32c/lib/thumb/v7e-m+fp/hard\libc_nano.a(lib_a-nano-svfscanf.o)
                              c:/program files/microchip/xc32/v3.01/bin/bin/../../lib/gcc/pic32c/8.3.1/../../../../pic32c/lib/thumb/v7e-m+fp/hard\libc_nano.a(lib_a-sscanf.o) (__ssvfscanf_r)
c:/program files/microchip/xc32/v3.01/bin/bin/../../lib/gcc/pic32c/8.3.1/../../../../pic32c/lib/thumb/v7e-m+fp/hard\libc_nano.a(lib_a-nano-vfscanf_i.o)
                              c:/program files/microchip/xc32/v3.01/bin/bin/../../lib/gcc/pic32c/8.3.1/../../../../pic32c/lib/thumb/v7e-m+fp/hard\libc_nano.a(lib_a-nano-svfscanf.o) (_scanf_chars)
c:/program files/microchip/xc32/v3.01/bin/bin/../../lib/gcc/pic32c/8.3.1/../../../../pic32c/lib/thumb/v7e-m+fp/hard\libc_nano.a(lib_a-readr.o)
                              c:/program files/microchip/xc32/v3.01/bin/bin/../../lib/gcc/pic32c/8.3.1/../../../../pic32c/lib/thumb/v7e-m+fp/hard\libc_nano.a(lib_a-stdio.o) (_read_r)
c:/program files/microchip/xc32/v3.01/bin/bin/../../lib/gcc/pic32c/8.3.1/../../../../pic32c/lib/thumb/v7e-m+fp/hard\libc_nano.a(lib_a-sccl.o)
                              c:/program files/microchip/xc32/v3.01/bin/bin/../../lib/gcc/pic32c/8.3.1/../../../../pic32c/lib/thumb/v7e-m+fp/hard\libc_nano.a(lib_a-nano-svfscanf.o) (__sccl)
c:/program files/microchip/xc32/v3.01/bin/bin/../../lib/gcc/pic32c/8.3.1/../../../../pic32c/lib/thumb/v7e-m+fp/hard\libc_nano.a(lib_a-strtol.o)
                              c:/program files/microchip/xc32/v3.01/bin/bin/../../lib/gcc/pic32c/8.3.1/../../../../pic32c/lib/thumb/v7e-m+fp/hard\libc_nano.a(lib_a-nano-vfscanf_i.o) (_strtol_r)
c:/program files/microchip/xc32/v3.01/bin/bin/../../lib/gcc/pic32c/8.3.1/../../../../pic32c/lib/thumb/v7e-m+fp/hard\libc_nano.a(lib_a-ungetc.o)
                              c:/program files/microchip/xc32/v3.01/bin/bin/../../lib/gcc/pic32c/8.3.1/../../../../pic32c/lib/thumb/v7e-m+fp/hard\libc_nano.a(lib_a-nano-svfscanf.o) (__submore)
c:/program files/microchip/xc32/v3.01/bin/bin/../../lib/gcc/pic32c/8.3.1/../../../../pic32c/lib/thumb/v7e-m+fp/hard\libc_nano.a(lib_a-fflush.o)
                              c:/program files/microchip/xc32/v3.01/bin/bin/../../lib/gcc/pic32c/8.3.1/../../../../pic32c/lib/thumb/v7e-m+fp/hard\libc_nano.a(lib_a-ungetc.o) (_fflush_r)
c:/program files/microchip/xc32/v3.01/bin/bin/../../lib/gcc/pic32c/8.3.1/../../../../pic32c/lib/thumb/v7e-m+fp/hard\libc_nano.a(lib_a-findfp.o)
                              c:/program files/microchip/xc32/v3.01/bin/bin/../../lib/gcc/pic32c/8.3.1/../../../../pic32c/lib/thumb/v7e-m+fp/hard\libc_nano.a(lib_a-ungetc.o) (__sinit)
c:/program files/microchip/xc32/v3.01/bin/bin/../../lib/gcc/pic32c/8.3.1/../../../../pic32c/lib/thumb/v7e-m+fp/hard\libc_nano.a(lib_a-fwalk.o)
                              c:/program files/microchip/xc32/v3.01/bin/bin/../../lib/gcc/pic32c/8.3.1/../../../../pic32c/lib/thumb/v7e-m+fp/hard\libc_nano.a(lib_a-fflush.o) (_fwalk_reent)
c:/program files/microchip/xc32/v3.01/bin/bin/../../lib/gcc/pic32c/8.3.1/../../../../pic32c/lib/thumb/v7e-m+fp/hard\libc_nano.a(lib_a-locale.o)
                              c:/program files/microchip/xc32/v3.01/bin/bin/../../lib/gcc/pic32c/8.3.1/../../../../pic32c/lib/thumb/v7e-m+fp/hard\libc_nano.a(lib_a-localeconv.o) (__global_locale)
c:/program files/microchip/xc32/v3.01/bin/bin/../../lib/gcc/pic32c/8.3.1/../../../../pic32c/lib/thumb/v7e-m+fp/hard\libc_nano.a(lib_a-mbtowc_r.o)
                              c:/program files/microchip/xc32/v3.01/bin/bin/../../lib/gcc/pic32c/8.3.1/../../../../pic32c/lib/thumb/v7e-m+fp/hard\libc_nano.a(lib_a-locale.o) (__ascii_mbtowc)
c:/program files/microchip/xc32/v3.01/bin/bin/../../lib/gcc/pic32c/8.3.1/../../../../pic32c/lib/thumb/v7e-m+fp/hard\libc_nano.a(lib_a-nano-msizer.o)
                              c:/program files/microchip/xc32/v3.01/bin/bin/../../lib/gcc/pic32c/8.3.1/../../../../pic32c/lib/thumb/v7e-m+fp/hard\libc_nano.a(lib_a-nano-reallocr.o) (_malloc_usable_size_r)
c:/program files/microchip/xc32/v3.01/bin/bin/../../lib/gcc/pic32c/8.3.1/../../../../pic32c/lib/thumb/v7e-m+fp/hard\libc_nano.a(lib_a-wctomb_r.o)
                              c:/program files/microchip/xc32/v3.01/bin/bin/../../lib/gcc/pic32c/8.3.1/../../../../pic32c/lib/thumb/v7e-m+fp/hard\libc_nano.a(lib_a-locale.o) (__ascii_wctomb)
c:/program files/microchip/xc32/v3.01/bin/bin/../../lib/gcc/pic32c/8.3.1/../../../../pic32c/lib/thumb/v7e-m+fp/hard\libpic32c.a(_close.o)
                              c:/program files/microchip/xc32/v3.01/bin/bin/../../lib/gcc/pic32c/8.3.1/../../../../pic32c/lib/thumb/v7e-m+fp/hard\libc_nano.a(lib_a-closer.o) (_close)
c:/program files/microchip/xc32/v3.01/bin/bin/../../lib/gcc/pic32c/8.3.1/../../../../pic32c/lib/thumb/v7e-m+fp/hard\libpic32c.a(_lseek.o)
                              c:/program files/microchip/xc32/v3.01/bin/bin/../../lib/gcc/pic32c/8.3.1/../../../../pic32c/lib/thumb/v7e-m+fp/hard\libc_nano.a(lib_a-lseekr.o) (_lseek)
c:/program files/microchip/xc32/v3.01/bin/bin/../../lib/gcc/pic32c/8.3.1/../../../../pic32c/lib/thumb/v7e-m+fp/hard\libpic32c.a(_read.o)
                              c:/program files/microchip/xc32/v3.01/bin/bin/../../lib/gcc/pic32c/8.3.1/../../../../pic32c/lib/thumb/v7e-m+fp/hard\libc_nano.a(lib_a-readr.o) (_read)
c:/program files/microchip/xc32/v3.01/bin/bin/../../lib/gcc/pic32c/8.3.1/../../../../pic32c/lib/thumb/v7e-m+fp/hard\libpic32c.a(sbrk.o)
                              c:/program files/microchip/xc32/v3.01/bin/bin/../../lib/gcc/pic32c/8.3.1/../../../../pic32c/lib/thumb/v7e-m+fp/hard\libc_nano.a(lib_a-sbrkr.o) (_sbrk)
c:/program files/microchip/xc32/v3.01/bin/bin/../../lib/gcc/pic32c/8.3.1/../../../../pic32c/lib/thumb/v7e-m+fp/hard\libpic32c.a(_write.o)
                              c:/program files/microchip/xc32/v3.01/bin/bin/../../lib/gcc/pic32c/8.3.1/../../../../pic32c/lib/thumb/v7e-m+fp/hard\libc_nano.a(lib_a-writer.o) (_write)
c:/program files/microchip/xc32/v3.01/bin/bin/../../lib/gcc/pic32c/8.3.1/../../../../pic32c/lib/thumb/v7e-m+fp/hard\libpic32c.a(close.o)
                              c:/program files/microchip/xc32/v3.01/bin/bin/../../lib/gcc/pic32c/8.3.1/../../../../pic32c/lib/thumb/v7e-m+fp/hard\libpic32c.a(_close.o) (close)
c:/program files/microchip/xc32/v3.01/bin/bin/../../lib/gcc/pic32c/8.3.1/../../../../pic32c/lib/thumb/v7e-m+fp/hard\libpic32c.a(lseek.o)
                              c:/program files/microchip/xc32/v3.01/bin/bin/../../lib/gcc/pic32c/8.3.1/../../../../pic32c/lib/thumb/v7e-m+fp/hard\libpic32c.a(_lseek.o) (lseek)
c:/program files/microchip/xc32/v3.01/bin/bin/../../lib/gcc/pic32c/8.3.1/../../../../pic32c/lib/thumb/v7e-m+fp/hard\libpic32c.a(read.o)
                              c:/program files/microchip/xc32/v3.01/bin/bin/../../lib/gcc/pic32c/8.3.1/../../../../pic32c/lib/thumb/v7e-m+fp/hard\libpic32c.a(_read.o) (read)
c:/program files/microchip/xc32/v3.01/bin/bin/../../lib/gcc/pic32c/8.3.1/../../../../pic32c/lib/thumb/v7e-m+fp/hard\libpic32c.a(write.o)
                              c:/program files/microchip/xc32/v3.01/bin/bin/../../lib/gcc/pic32c/8.3.1/../../../../pic32c/lib/thumb/v7e-m+fp/hard\libpic32c.a(_write.o) (write)
c:/program files/microchip/xc32/v3.01/bin/bin/../../lib/gcc/pic32c/8.3.1/thumb/v7e-m+fp/hard\libgcc.a(_arm_addsubdf3.o)
                              c:/program files/microchip/xc32/v3.01/bin/bin/../../lib/gcc/pic32c/8.3.1/../../../../pic32c/lib/thumb/v7e-m+fp/hard\libc_nano.a(lib_a-dtoa.o) (__aeabi_dsub)
c:/program files/microchip/xc32/v3.01/bin/bin/../../lib/gcc/pic32c/8.3.1/thumb/v7e-m+fp/hard\libgcc.a(_arm_muldivdf3.o)
                              c:/program files/microchip/xc32/v3.01/bin/bin/../../lib/gcc/pic32c/8.3.1/../../../../pic32c/lib/thumb/v7e-m+fp/hard\libc_nano.a(lib_a-dtoa.o) (__aeabi_dmul)
c:/program files/microchip/xc32/v3.01/bin/bin/../../lib/gcc/pic32c/8.3.1/thumb/v7e-m+fp/hard\libgcc.a(_arm_cmpdf2.o)
                              c:/program files/microchip/xc32/v3.01/bin/bin/../../lib/gcc/pic32c/8.3.1/../../../../pic32c/lib/thumb/v7e-m+fp/hard\libc_nano.a(lib_a-nano-vfprintf_float.o) (__aeabi_dcmpeq)
c:/program files/microchip/xc32/v3.01/bin/bin/../../lib/gcc/pic32c/8.3.1/thumb/v7e-m+fp/hard\libgcc.a(_arm_unorddf2.o)
                              c:/program files/microchip/xc32/v3.01/bin/bin/../../lib/gcc/pic32c/8.3.1/../../../../pic32c/lib/thumb/v7e-m+fp/hard\libc_nano.a(lib_a-nano-vfprintf_float.o) (__aeabi_dcmpun)
c:/program files/microchip/xc32/v3.01/bin/bin/../../lib/gcc/pic32c/8.3.1/thumb/v7e-m+fp/hard\libgcc.a(_arm_fixdfsi.o)
                              c:/program files/microchip/xc32/v3.01/bin/bin/../../lib/gcc/pic32c/8.3.1/../../../../pic32c/lib/thumb/v7e-m+fp/hard\libc_nano.a(lib_a-dtoa.o) (__aeabi_d2iz)

Allocating common symbols
Common symbol       size              file

errno               0x4               c:/program files/microchip/xc32/v3.01/bin/bin/../../lib/gcc/pic32c/8.3.1/../../../../pic32c/lib/thumb/v7e-m+fp/hard\libc_nano.a(lib_a-reent.o)

Microchip PIC32 Memory-Usage Report

ROM Program-Memory Usage
section                    address  length [bytes]      (dec)  Description
-------                 ----------  -------------------------  -----------
.vectors                         0          0x264         612   
.text                        0x264           0x20          32  App's exec code 
.ARM.exidx                   0x284            0x8           8   
.text.nm_bus_iface_dein      0x28c            0x4           4   
.text._dtoa_r                0x290          0xb6c        2924   
.dinit                       0xdfc          0x6b0        1712   
.rodata                     0x14ac          0x664        1636  Read-only const 
.text._printf_float         0x1b10          0x52c        1324   
.text.m2m_ip_cb             0x203c          0x4a8        1192   
.text                       0x24e4          0x424        1060  App's exec code 
.text._WDRV_WINC_WifiCa     0x2908          0x3d8         984   
.rodata                     0x2ce0          0x37c         892  Read-only const 
.text.m2m_wifi_cb           0x305c          0x37c         892   
.text                       0x33d8          0x378         888  App's exec code 
.rodata                     0x3750          0x374         884  Read-only const 
.text.hif_handle_isr        0x3ac4          0x364         868   
.text._tzset_unlocked_r     0x3e28          0x2f8         760   
.text.mktime                0x4120          0x2d4         724   
.text                       0x43f4          0x2d0         720  App's exec code 
.text.__ssvfscanf_r         0x46c4          0x298         664   
.text.hif_send              0x495c          0x274         628   
.text.WDRV_WINC_Tasks       0x4bd0          0x240         576   
.text.WDRV_WINC_BSSConn     0x4e10          0x238         568   
.text._printf_i             0x5048          0x228         552   
.text.nm_spi_write_bloc     0x5270          0x220         544   
.text.DRV_SPI_WriteRead     0x5490          0x1e8         488   
.text._scanf_i              0x5678          0x1e8         488   
.rodata                     0x5860          0x1e4         484  Read-only const 
.text._svfprintf_r          0x5a44          0x1cc         460   
.text.m2m_wifi_connect_     0x5c10          0x1b8         440   
.text._WDRV_WINC_HostFi     0x5dc8          0x1b8         440   
.text.validate_structur     0x5f80          0x1b4         436   
.text.SERCOM2_USART_Int     0x6134          0x1b0         432   
.text.socket                0x62e4          0x1ac         428   
.text.m2m_ota_cb            0x6490          0x1a8         424   
.text._DRV_SPI_StartDMA     0x6638          0x1a4         420   
.text.SERCOM4_SPI_Inter     0x67dc          0x190         400   
.text.m2m_wifi_init_sta     0x696c          0x18c         396   
.text.spi_cmd               0x6af8          0x15c         348   
.text._DRV_SPI_RX_DMA_C     0x6c54          0x150         336   
.text.APP_ExampleSocket     0x6da4          0x14c         332   
.text.WDRV_WINC_Open        0x6ef0          0x144         324   
.text.WDRV_WINC_HostFil     0x7034          0x144         324   
.text.SERCOM4_SPI_Write     0x7178          0x140         320   
.text.__tzcalc_limits       0x72b8          0x140         320   
.text.DRV_SPI_Open          0x73f8          0x130         304   
.text.wait_for_bootrom      0x7528          0x130         304   
.text.__multiply            0x7658          0x130         304   
.text.quorem                0x7788          0x12e         302   
.text.m2m_hif_cb            0x78b6            0x2           2   
.text.m2m_wifi_connect_     0x78b8          0x128         296   
.rodata                     0x79e0          0x248         584  Read-only const 
.text.m2m_ssl_cb            0x7c28          0x124         292   
.text.CLOCK_Initialize      0x7d4c          0x118         280   
.text.nm_spi_init           0x7e64          0x114         276   
.text.DRV_SPI_Close         0x7f78          0x110         272   
.text.spi_data_read         0x8088          0x110         272   
.text.nm_spi_read_reg_w     0x8198          0x110         272   
.rodata                     0x82a8          0x110         272  Read-only const 
.text                       0x83b8          0x110         272  App's exec code 
.text.m2m_wifi_connect_     0x84c8          0x108         264   
.text.nm_spi_read_block     0x85d0          0x108         264   
.text.APP_ExampleTasks      0x86d8          0x104         260   
.rodata._ctype_             0x87dc          0x101         257   
.rodata.crc7_syndrome_t     0x88e0          0x100         256   
.text._WDRV_WINC_SSLCal     0x89e0          0x100         256   
.text.DRV_SPI_Initializ     0x8ae0           0xf0         240   
.text.DMAC_ChannelTrans     0x8bd0           0xec         236   
.text._strtol_l.isra.0      0x8cbc           0xec         236   
.text._printf_common        0x8da8           0xea         234   
.text.EVSYS_Initialize      0x8e92            0x2           2   
.text.spi_cmd_rsp           0x8e94           0xe8         232   
.text.nm_spi_write_reg      0x8f7c           0xe8         232   
.text._strtoul_l.isra.0     0x9064           0xe8         232   
.text._DRV_SPI_PlibCall     0x914c           0xe0         224   
.text.spi_flash_enable      0x922c           0xe0         224   
.text.m2m_ota_host_file     0x930c           0xdc         220   
.rodata                     0x93e8           0xdc         220  Read-only const 
.text.wait_for_firmware     0x94c4           0xd8         216   
.rodata                     0x959c           0xd4         212  Read-only const 
.text.SYS_TIME_PLIBCall     0x9670           0xd4         212   
.text._DRV_SPI_Resource     0x9744           0xd2         210   
.text.__mdiff               0x9816           0xc8         200   
.text.Console_UART_Task     0x98de            0x2           2   
.rodata.__mprec_tens        0x98e0           0xc8         200   
.text.m2m_wifi_connect_     0x99a8           0xc6         198   
.text.Dummy_Handler         0x9a6e            0x2           2   
.text.hif_receive           0x9a70           0xc4         196   
.text.nm_get_firmware_f     0x9b34           0xc4         196   
.text._DRV_SPI_Resource     0x9bf8           0xbc         188   
.text.chip_wake             0x9cb4           0xbc         188   
.text.inet_addr             0x9d70           0xbc         188   
.text.__ssputs_r            0x9e2c           0xb6         182   
.text.NonMaskableInt_Ha     0x9ee2            0x2           2   
.rodata                     0x9ee4           0xb4         180  Read-only const 
.text.SYS_TIME_HwTimerC     0x9f98           0xb4         180   
.text._malloc_r             0xa04c           0xb4         180   
.text.nmi_get_chipid        0xa100           0xb0         176   
.text.send                  0xa1b0           0xb0         176   
.text.recv                  0xa260           0xb0         176   
.text.SYS_TIME_TimerObj     0xa310           0xb0         176   
.text._scanf_chars          0xa3c0           0xb0         176   
.text.DMAC_Initialize       0xa470           0xac         172   
.text.NVIC_Initialize       0xa51c           0xa8         168   
.text.SERCOM2_USART_Wri     0xa5c4           0xa8         168   
.text.__lshift              0xa66c           0xa6         166   
.text.HardFault_Handler     0xa712            0x2           2   
.text.inet_ntop             0xa714           0xa0         160   
.text.spi_flash_load_to     0xa7b4           0xa0         160   
.text.SYS_TIME_Initiali     0xa854           0xa0         160   
.text.WDRV_WINC_GPIORes     0xa8f4            0xc          12   
.text                       0xa900           0xa0         160  App's exec code 
.text.__d2b                 0xa9a0           0x9e         158   
.text.DebugMonitor_Hand     0xaa3e            0x2           2   
.text._DRV_SPI_UpdateTr     0xaa40           0x9c         156   
.text.SERCOM4_SPI_Trans     0xaadc           0x9c         156   
.text._free_r               0xab78           0x9c         156   
.text.__pow5mult            0xac14           0x9c         156   
.text.connect               0xacb0           0x98         152   
.text.shutdown              0xad48           0x94         148   
.text.spi_flexible_flas     0xaddc           0x94         148   
.text.SYS_TIME_AddToLis     0xae70           0x90         144   
.text.Reset_Handler         0xaf00           0x90         144   
.text.spi_flash_read        0xaf90           0x8c         140   
.text.SERCOM2_USART_Ini     0xb01c           0x8c         140   
.text.__pic32c_data_ini     0xb0a8           0x88         136   
.text._WDRV_WINC_HostFi     0xb130           0x84         132   
.text._DMAC_interruptHa     0xb1b4           0x80         128   
.text.EIC_Initialize        0xb234           0x80         128   
.text.__multadd             0xb2b4           0x7e         126   
.text.MemoryManagement_     0xb332            0x2           2   
.text.SYS_Initialize        0xb334           0x7c         124   
.text._sungetc_r            0xb3b0           0x7a         122   
.text.BusFault_Handler      0xb42a            0x2           2   
.text.SERCOM2_USART_Rea     0xb42c           0x78         120   
.text.APP_ExampleConnec     0xb4a4           0x78         120   
.text.hif_register_cb       0xb51c           0x74         116   
.text.nm_drv_init_downl     0xb590           0x74         116   
.rodata                     0xb604           0x74         116  Read-only const 
.text._findenv_r            0xb678           0x74         116   
.text.__submore             0xb6ec           0x74         116   
.text.WDRV_WINC_SPIInit     0xb760           0x70         112   
.text.nm_drv_deinit         0xb7d0           0x70         112   
.text.SYS_CONSOLE_Print     0xb840           0x6c         108   
.text.chip_sleep            0xb8ac           0x68         104   
.text.APP_Tasks             0xb914           0x68         104   
.text._Balloc               0xb97c           0x68         104   
.text.cpu_halt              0xb9e4           0x66         102   
.text._WDRV_WINC_ConnNe     0xba4a           0x66         102   
.text.__sccl                0xbab0           0x64         100   
.text.WDRV_WINC_BSSCtxI     0xbb14           0x62          98   
.text.UsageFault_Handle     0xbb76            0x2           2   
.text.DRV_SPI_TransferE     0xbb78           0x60          96   
.text.nm_drv_init_start     0xbbd8           0x60          96   
.text.PORT_Initialize       0xbc38           0x60          96   
.rodata.__month_lengths     0xbc98           0x60          96   
.text.__lo0bits             0xbcf8           0x60          96   
.text.chip_deinit           0xbd58           0x5c          92   
.text.m2m_ota_host_file     0xbdb4           0x5c          92   
.text.SYS_TIME_RemoveFr     0xbe10           0x5c          92   
.text._vsnprintf_r          0xbe6c           0x5c          92   
.text._SPI_Rx               0xbec8           0x58          88   
.text.enable_interrupts     0xbf20           0x58          88   
.text.nmi_get_mac_addre     0xbf78           0x58          88   
.text.nm_read_block         0xbfd0           0x58          88   
.text.nm_write_block        0xc028           0x58          88   
.text._WDRV_WINC_HostFi     0xc080           0x58          88   
.text.SYS_TIME_TimerSta     0xc0d8           0x58          88   
.text._DRV_SPI_TX_DMA_C     0xc130           0x54          84   
.text.nm_drv_init_hold      0xc184           0x54          84   
.text.SYS_CONSOLE_Initi     0xc1d8           0x54          84   
.text.sscanf                0xc22c           0x54          84   
.text.WDRV_WINC_BSSReco     0xc280           0x52          82   
.text.Dummy_App_Func        0xc2d2            0x2           2   
.text.SYS_TIME_DelayMS      0xc2d4           0x50          80   
.text                       0xc324           0x50          80  App's exec code 
.rodata                     0xc374           0x4e          78  Read-only const 
.text.__malloc_lock         0xc3c2            0x2           2   
.text._DRV_SPI_DriverHa     0xc3c4           0x4c          76   
.text._SPI_Tx               0xc410           0x4c          76   
.text.m2m_ssl_init          0xc45c           0x4c          76   
.text.APP_ExampleInitia     0xc4a8           0x4c          76   
.text._realloc_r            0xc4f4           0x4c          76   
.text._WDRV_WINC_OTAUpd     0xc540           0x48          72   
.text.__libc_init_array     0xc588           0x48          72   
.text.WDRV_WINC_BSSCtxS     0xc5d0           0x44          68   
.text.SYS_INT_SourceDis     0xc614           0x44          68   
.text                       0xc658           0x40          64  App's exec code 
.text.WDRV_WINC_SPIDein     0xc698           0x40          64   
.text.m2m_ota_init          0xc6d8           0x40          64   
.text.TC3_TimerInitiali     0xc718           0x40          64   
.text.SYS_TIME_TimerAdd     0xc758           0x40          64   
.text.__hi0bits             0xc798           0x40          64   
.text.WDRV_WINC_SPISend     0xc7d8           0x3e          62   
.text.WDRV_WINC_SPIRece     0xc816           0x3e          62   
.text.WDRV_WINC_AuthCtx     0xc854           0x3e          62   
.text.__malloc_unlock       0xc892            0x2           2   
.text._WDRV_WINC_SPITra     0xc894           0x3c          60   
.text.nm_spi_reset          0xc8d0           0x3c          60   
.text.socketInit            0xc90c           0x3c          60   
.text.WDRV_WINC_LocalTi     0xc948           0x3c          60   
.text.SERCOM4_SPI_Initi     0xc984           0x3c          60   
.text.SYS_TIME_GetTimer     0xc9c0           0x3c          60   
.text.SYS_TIME_TimerDes     0xc9fc           0x3c          60   
.text.__ssrefill_r          0xca38           0x3a          58   
.text.__env_lock            0xca72            0x2           2   
.text.hif_set_rx_done       0xca74           0x38          56   
.text.hif_chip_wake         0xcaac           0x38          56   
.text.SYS_TIME_Resource     0xcae4           0x38          56   
.text.m2m_wifi_connect_     0xcb1c           0x36          54   
.text.__env_unlock          0xcb52            0x2           2   
.text.hif_init              0xcb54           0x34          52   
.text.socketDeinit          0xcb88           0x34          52   
.text.WDRV_WINC_IPUseDH     0xcbbc           0x34          52   
.text.Console_UART_Read     0xcbf0           0x34          52   
.text.Console_UART_Writ     0xcc24           0x34          52   
.text.SYS_TIME_Resource     0xcc58           0x34          52   
.text.memmove               0xcc8c           0x34          52   
.text.__mcmp                0xccc0           0x34          52   
.text.hif_chip_sleep        0xccf4           0x30          48   
.text.WDRV_WINC_Initial     0xcd24           0x30          48   
.text.SYS_CONSOLE_Messa     0xcd54           0x30          48   
.text.Console_UART_Writ     0xcd84           0x30          48   
.text.Console_UART_Writ     0xcdb4           0x30          48   
.text.Console_UART_Read     0xcde4           0x30          48   
.text.Console_UART_Read     0xce14           0x30          48   
.text.SYS_TIME_UpdateTi     0xce44           0x30          48   
.rodata.drvSPI0InitData     0xce74           0x30          48   
.text                       0xcea4           0x30          48  App's exec code 
.rodata.DAYS_IN_MONTH       0xced4           0x30          48   
.rodata._DAYS_BEFORE_MO     0xcf04           0x30          48   
.text.chip_apply_conf       0xcf34           0x2e          46   
.text._Bfree                0xcf62           0x2e          46   
.text.DMAC_ChannelSetti     0xcf90           0x2c          44   
.text.EIC_CallbackRegis     0xcfbc           0x2c          44   
.text.TC3_TimerInterrup     0xcfe8           0x2c          44   
.rodata.sysConsoleUARTD     0xd014           0x2c          44   
.text.APP_ExampleDHCPAd     0xd040           0x2c          44   
.text._sbrk                 0xd06c           0x2c          44   
.text                       0xd098           0x2c          44  App's exec code 
.text.spi_reset             0xd0c4           0x2a          42   
.text.WDRV_WINC_BSSCtxS     0xd0ee           0x2a          42   
.text.TC3_Timer16bitCou     0xd118           0x28          40   
.text.SYS_TIME_TimerPer     0xd140           0x28          40   
.rodata.drvSPI0remapDat     0xd168           0x28          40   
.text.div                   0xd190           0x28          40   
.rodata.__mprec_bigtens     0xd1b8           0x28          40   
.rodata                     0xd1e0           0x28          40  Read-only const 
.text.nm_reset              0xd208           0x26          38   
.text.m2m_wifi_enable_d     0xd22e           0x24          36   
.text.m2m_wifi_get_mac_     0xd252           0x24          36   
.text.WDRV_WINC_BSSCtxS     0xd276           0x24          36   
.text.strncmp               0xd29a           0x24          36   
.text.__ascii_mbtowc        0xd2be           0x24          36   
.text.m2m_wifi_req_scan     0xd2e2           0x22          34   
.text.WDRV_MSDelay          0xd304           0x22          34   
.rodata                     0xd326           0x22          34  Read-only const 
.text.m2m_wifi_download     0xd348           0x20          32   
.text.EIC_EXTINT_7_Inte     0xd368           0x20          32   
.text.SYS_INT_SourceRes     0xd388           0x20          32   
.text._sbrk_r               0xd3a8           0x20          32   
.text.m2m_wifi_set_stat     0xd3c8           0x1e          30   
.text.WDRV_WINC_Status      0xd3e6           0x1e          30   
.text.SYS_DMA_Addressin     0xd404           0x1e          30   
.text.hif_deinit            0xd424           0x1c          28   
.text.m2m_wifi_deinit       0xd440           0x1c          28   
.text.m2m_wifi_default_     0xd45c           0x1c          28   
.text.WDRV_WINC_ISR         0xd478           0x1c          28   
.text.SYS_DEBUG_Initial     0xd494           0x1c          28   
.text.SYS_TIME_Counter6     0xd4b0           0x1c          28   
.text.SYS_TIME_GetElaps     0xd4cc           0x1c          28   
.rodata.sysTimePlibAPI      0xd4e8           0x1c          28   
.text.memcpy                0xd504           0x1c          28   
.text.vsnprintf             0xd520           0x1c          28   
.text._calloc_r             0xd53c           0x1c          28   
.text.WDRV_WINC_IPLinkA     0xd558           0x1a          26   
.text.SYS_DMA_DataWidth     0xd572           0x1a          26   
.text.strchr                0xd58c           0x1a          26   
.text.__ascii_wctomb        0xd5a6           0x1a          26   
.text.WDRV_WINC_INTInit     0xd5c0           0x18          24   
.text.hif_chip_sleep_sc     0xd5d8           0x18          24   
.text.m2m_wifi_init_hol     0xd5f0           0x18          24   
.text.SERCOM2_USART_Wri     0xd608           0x18          24   
.text.SERCOM2_USART_Rea     0xd620           0x18          24   
.text.TC3_TimerStart        0xd638           0x18          24   
.text.TC3_TimerStop         0xd650           0x18          24   
.text.SYS_TIME_DelayIsC     0xd668           0x18          24   
.rodata.drvSPI0Interrup     0xd680           0x18          24   
.rodata.sysConsole0UART     0xd698           0x18          24   
.text.WDRV_WINC_SocketR     0xd6b0           0x16          22   
.text.DRV_SPI_WriteTran     0xd6c6           0x14          20   
.rodata                     0xd6dc           0x14          20  Read-only const 
.text.SERCOM2_USART_Rea     0xd6f0           0x14          20   
.text.SERCOM2_USART_Wri     0xd704           0x14          20   
.text.TC3_Timer16bitPer     0xd718           0x14          20   
.text.TC3_Timer16bitCom     0xd72c           0x14          20   
.text.Console_UART_Init     0xd740           0x14          20   
.text.SYS_Tasks             0xd754           0x14          20   
.text                       0xd768           0x14          20  App's exec code 
.text.strtoul               0xd77c           0x14          20   
.text._DRV_SPI_RemoveTr     0xd790           0x12          18   
.text.nm_spi_read_reg       0xd7a2           0x12          18   
.text.NVIC_INT_Disable      0xd7b4           0x12          18   
.text.NVIC_INT_Restore      0xd7c6           0x12          18   
.rodata                     0xd7d8           0x12          18  Read-only const 
.text.__i2b                 0xd7ea           0x12          18   
.rodata                     0xd7fc           0x11          17  Read-only const 
.text.BSP_Initialize        0xd810           0x10          16   
.text.WDRV_WINC_GPIOChi     0xd820           0x10          16   
.text.WDRV_WINC_GPIOChi     0xd830           0x10          16   
.text.nm_bus_iface_init     0xd840           0x10          16   
.text.DMAC_ChannelCallb     0xd850           0x10          16   
.text.EIC_InterruptEnab     0xd860           0x10          16   
.text.EIC_InterruptDisa     0xd870           0x10          16   
.text.NVMCTRL_Initializ     0xd880           0x10          16   
.text.SERCOM4_SPI_IsTra     0xd890           0x10          16   
.text.Console_UART_Stat     0xd8a0           0x10          16   
.rodata.drvSPI0PlibAPI      0xd8b0           0x10          16   
.text.malloc                0xd8c0           0x10          16   
.text.free                  0xd8d0           0x10          16   
.text.memset                0xd8e0           0x10          16   
.text                       0xd8f0           0x10          16  App's exec code 
.text.strcpy                0xd900           0x10          16   
.text._malloc_usable_si     0xd910           0x10          16   
.rodata                     0xd920            0xf          15  Read-only const 
.text.WDRV_WINC_AuthCtx     0xd930            0xe          14   
.text.main                  0xd93e            0xe          14   
.text._getenv_r             0xd94c            0xe          14   
.text.WDRV_WINC_GPIORes     0xd95c            0xc          12   
.text.m2m_wifi_get_num_     0xd968            0xc          12   
.text.m2m_wifi_get_stat     0xd974            0xc          12   
.text.nm_spi_lock_init      0xd980            0xc          12   
.text.nm_spi_deinit         0xd98c            0xc          12   
.text.registerSocketEve     0xd998            0xc          12   
.text.DMAC_ChannelSetti     0xd9a4            0xc          12   
.text.SERCOM4_SPI_Callb     0xd9b0            0xc          12   
.text.TC3_TimerCallback     0xd9bc            0xc          12   
.text.SYS_DEBUG_Console     0xd9c8            0xc          12   
.text.SYS_DEBUG_ErrorLe     0xd9d4            0xc          12   
.rodata.sysConsole0Init     0xd9e0            0xc          12   
.text.APP_Initialize        0xd9ec            0xc          12   
.text.tzset                 0xd9f8            0xc          12   
.rodata.p05.7453            0xda04            0xc          12   
.rodata                     0xda10            0xb          11  Read-only const 
.text.WDRV_WINC_INTDein     0xda1c            0xa          10   
.text.DMAC_0_InterruptH     0xda26            0xa          10   
.text.DMAC_1_InterruptH     0xda30            0xa          10   
.text.DMAC_2_InterruptH     0xda3a            0xa          10   
.text.DMAC_3_InterruptH     0xda44            0xa          10   
.text.SYS_CONSOLE_Handl     0xda4e            0xa          10   
.text.nm_sleep              0xda58            0x8           8   
.text.m2m_wifi_handle_e     0xda60            0x8           8   
.text.nm_bus_reset          0xda68            0x8           8   
.text.nm_read_reg           0xda70            0x8           8   
.text.nm_read_reg_with_     0xda78            0x8           8   
.text.nm_write_reg          0xda80            0x8           8   
.text.SERCOM2_USART_Wri     0xda88            0x8           8   
.text.TC3_TimerFrequenc     0xda90            0x8           8   
.text.SYS_INT_Disable       0xda98            0x8           8   
.text.SYS_INT_Restore       0xdaa0            0x8           8   
.rodata.drvSPI0remapClo     0xdaa8            0x8           8   
.rodata.drvSPI0remapClo     0xdab0            0x8           8   
.rodata.sysTimeInitData     0xdab8            0x8           8   
.text.__gettzinfo           0xdac0            0x8           8   
.text._localeconv_r         0xdac8            0x8           8   
.text.PORT_GroupSet         0xdad0            0x4           4   
.text.PORT_GroupClear       0xdad4            0x4           4   
.text.Console_UART_Flus     0xdad8            0x4           4   
.rodata.debugInit           0xdadc            0x4           4   
.rodata.sysConsole0UART     0xdae0            0x4           4   
.text                       0xdae4            0x4           4  App's exec code 
.text._tzset_unlocked       0xdae8            0x4           4   
.rodata                     0xdaec            0x4           4  Read-only const 
.text.__seofread            0xdaf0            0x4           4   
.text._strtoul_r            0xdaf4            0x4           4   
.rodata                     0xdaf8            0x4           4  Read-only const 
.text._strtol_r             0xdafc            0x4           4   
      Total ROM used  :      0xdaf2       56050  5.3% of 0x100000
        --------------------------------------------------------------------------
         Total Program Memory used  :      0xdaf2       56050  5.3% of 0x100000
        --------------------------------------------------------------------------


RAM Data-Memory Usage
section                    address  length [bytes]      (dec)  Description
-------                 ----------  -------------------------  -----------
.bss                    0x20000000            0x4           4  Uninitialized data 
.bss.SERCOM2_USART_Writ 0x20000004          0x800        2048   
.bss.recvBuffer         0x20000804          0x5b4        1460   
.data.__global_locale   0x20000db8          0x16c         364   
.bss.wincCtrlDescriptor 0x20000f24           0xfc         252   
.bss.consolePrintBuffer 0x20001020           0xc8         200   
.bss.eicCallbackObject  0x200010e8           0xc0         192   
.bss.gastrSockets       0x200011a8           0xb0         176   
.bss.timers             0x20001258           0xa0         160   
.bss.drvSPI0TransferObj 0x200012f8           0x90         144   
.bss.SERCOM2_USART_Read 0x20001388           0x80         128   
.bss.gDrvSPIObj         0x20001408           0x6c         108   
.data.impure_data       0x20001474           0x60          96   
.bss.transferRxHandle   0x200014d4            0x4           4   
.bss._write_back_sectio 0x200014d8           0x40          64   
.bss.descriptor_section 0x20001518           0x40          64   
.bss.dmacChannelObj     0x20001558           0x40          64   
.bss.sercom2USARTObj    0x20001598           0x40          64   
.data.tzinfo            0x200015d8           0x40          64   
.bss.gSystemCounterObj  0x20001618           0x38          56   
.bss.sercom4SPIObj      0x20001650           0x2c          44   
.bss.gstrHifCxt         0x2000167c           0x28          40   
.bss.drvSPI0ClientObjPo 0x200016a4           0x28          40   
.bss.__sf_fake_stderr   0x200016cc           0x20          32   
.bss.__sf_fake_stdin    0x200016ec           0x20          32   
.bss.__sf_fake_stdout   0x2000170c           0x20          32   
.bss                    0x2000172c           0x1c          28  Uninitialized data 
.bss.gau81xRootSha1     0x20001748           0x14          20   
.bss.sysObj             0x2000175c           0x14          20   
.bss.txDummyData        0x20001770           0x10          16   
.bss.wincDescriptor     0x20001780           0x10          16   
.bss.consoleDeviceInsta 0x20001790            0xc          12   
.bss.__tzname_dst       0x2000179c            0xb          11   
.bss.__tzname_std       0x200017a7            0xb          11   
.bss.gu16ethRcvBufSize  0x200017b2            0x2           2   
.bss.FileBlock          0x200017b4            0x8           8   
.bss.TC3_CallbackObject 0x200017bc            0x8           8   
.bss.gConsoleUartData   0x200017c4            0x8           8   
.bss.appData            0x200017cc            0x8           8   
.data._tzname           0x200017d4            0x8           8   
.bss.transferTxHandle   0x200017dc            0x4           4   
.data.spiHandle         0x200017e0            0x4           4   
.bss.gau8ethRcvBuf      0x200017e4            0x4           4   
.bss.gpfAppEthCb        0x200017e8            0x4           4   
.bss.gpfAppWifiCb       0x200017ec            0x4           4   
.data.gu321xTlsHsFlags  0x200017f0            0x4           4   
.bss.chipid.12138       0x200017f4            0x4           4   
.bss.gpfHFDEraseCb      0x200017f8            0x4           4   
.bss.gpfHFDGetCb        0x200017fc            0x4           4   
.bss.gpfHFDReadCb       0x20001800            0x4           4   
.bss.gpfOtaNotifCb      0x20001804            0x4           4   
.bss.gpfOtaUpdateCb     0x20001808            0x4           4   
.bss.u32FlashHFDSize.12 0x2000180c            0x4           4   
.bss.u32FlashHFDStart.1 0x20001810            0x4           4   
.bss.gpfAppSSLCb        0x20001814            0x4           4   
.bss.gu32HIFAddr        0x20001818            0x4           4   
.bss.gfpPingCb          0x2000181c            0x4           4   
.bss.gpfAppResolveCb    0x20001820            0x4           4   
.bss.gpfAppSocketCb     0x20001824            0x4           4   
.bss.gu32PingId         0x20001828            0x4           4   
.bss.sysDebugInstance   0x2000182c            0x4           4   
.bss.wdrvHandle         0x20001830            0x4           4   
.bss                    0x20001834            0x4           4  Uninitialized data 
.data._impure_ptr       0x20001838            0x4           4   
.bss.__malloc_free_list 0x2000183c            0x4           4   
.bss.__malloc_sbrk_star 0x20001840            0x4           4   
.bss.prev_tzenv         0x20001844            0x4           4   
.bss._daylight          0x20001848            0x4           4   
.bss._timezone          0x2000184c            0x4           4   
.bss.initial_env        0x20001850            0x4           4   
.data.environ           0x20001854            0x4           4   
.bss                    0x20001858            0x4           4  Uninitialized data 
.data.egstrNmBusCapabil 0x2000185c            0x2           2   
.bss.gu16SessionID      0x2000185e            0x2           2   
.data.gSysTimeTokenCoun 0x20001860            0x2           2   
.bss.dummy.12474        0x20001862            0x1           1   
.bss.rxSyncSem          0x20001863            0x1           1   
.bss.txSyncSem          0x20001864            0x1           1   
.bss.hifSemaphore       0x20001865            0x1           1   
.bss.gu8ChNum           0x20001866            0x1           1   
.bss.gu8WifiState       0x20001867            0x1           1   
.bss.gu8scanInProgress  0x20001868            0x1           1   
.bss.gu8Crc_off         0x20001869            0x1           1   
.bss.s_spiLock          0x2000186a            0x1           1   
.data.gu8CurrFileHandle 0x2000186b            0x1           1   
.data.genuStatus        0x2000186c            0x1           1   
.bss.gbSocketInit       0x2000186d            0x1           1   
.bss.u8NextTcpSock.1245 0x2000186e            0x1           1   
.bss.u8NextUdpSock.1245 0x2000186f            0x1           1   
.bss.isLastByteTransfer 0x20001870            0x1           1   
.bss.consolePrintBuffer 0x20001871            0x1           1   
.bss.isConsoleMutexCrea 0x20001872            0x1           1   
.bss.gblErrLvl          0x20001873            0x1           1   
.bss.clientSocket       0x20001874            0x1           1   
.bss.state              0x20001875            0x1           1   
         Total RAM used  :      0x1876        6262  2.4% of 0x40000
        --------------------------------------------------------------------------
            Total Data Memory used  :      0x1876        6262  2.4% of 0x40000
        --------------------------------------------------------------------------


Dynamic Data-Memory Reservation
section                    address  length [bytes]      (dec)  Description
-------                 ----------  -------------------------  -----------
heap                    0x20001878         0x2710       10000  Reserved for heap 
stack                   0x20003fa0        0x3c050      245840  Reserved for stack 

        --------------------------------------------------------------------------

Discarded input sections

 .text          0x00000000        0x0 c:/program files/microchip/xc32/v3.01/bin/bin/../../lib/gcc/pic32c/8.3.1/thumb/v7e-m+fp/hard/crti.o
 .data          0x00000000        0x0 c:/program files/microchip/xc32/v3.01/bin/bin/../../lib/gcc/pic32c/8.3.1/thumb/v7e-m+fp/hard/crti.o
 .bss           0x00000000        0x0 c:/program files/microchip/xc32/v3.01/bin/bin/../../lib/gcc/pic32c/8.3.1/thumb/v7e-m+fp/hard/crti.o
 .xc_stack_usage.hdr
                0x00000000        0xe c:/program files/microchip/xc32/v3.01/bin/bin/../../lib/gcc/pic32c/8.3.1/thumb/v7e-m+fp/hard/crti.o
 .xc_stack_usage
                0x00000000       0x26 c:/program files/microchip/xc32/v3.01/bin/bin/../../lib/gcc/pic32c/8.3.1/thumb/v7e-m+fp/hard/crti.o
 .data          0x00000000        0x4 c:/program files/microchip/xc32/v3.01/bin/bin/../../lib/gcc/pic32c/8.3.1/thumb/v7e-m+fp/hard/crtbegin.o
 .xc_stack_usage
                0x00000000       0x3c c:/program files/microchip/xc32/v3.01/bin/bin/../../lib/gcc/pic32c/8.3.1/thumb/v7e-m+fp/hard/crtbegin.o
 .xc_stack_usage.hdr
                0x00000000        0xe c:/program files/microchip/xc32/v3.01/bin/bin/../../lib/gcc/pic32c/8.3.1/thumb/v7e-m+fp/hard/crtbegin.o
 .text          0x00000000        0x0 build/sam_e54_xpro_winc1500/production/_ext/1159541321/bsp.o
 .data          0x00000000        0x0 build/sam_e54_xpro_winc1500/production/_ext/1159541321/bsp.o
 .bss           0x00000000        0x0 build/sam_e54_xpro_winc1500/production/_ext/1159541321/bsp.o
 .text          0x00000000        0x0 build/sam_e54_xpro_winc1500/production/_ext/138683810/drv_spi.o
 .data          0x00000000        0x0 build/sam_e54_xpro_winc1500/production/_ext/138683810/drv_spi.o
 .bss           0x00000000        0x0 build/sam_e54_xpro_winc1500/production/_ext/138683810/drv_spi.o
 .text.DRV_SPI_Status
                0x00000000       0x2c build/sam_e54_xpro_winc1500/production/_ext/138683810/drv_spi.o
 .text.DRV_SPI_TransferSetup
                0x00000000       0x98 build/sam_e54_xpro_winc1500/production/_ext/138683810/drv_spi.o
 .text.DRV_SPI_ReadTransferAdd
                0x00000000       0x18 build/sam_e54_xpro_winc1500/production/_ext/138683810/drv_spi.o
 .text.DRV_SPI_TransferStatusGet
                0x00000000       0x88 build/sam_e54_xpro_winc1500/production/_ext/138683810/drv_spi.o
 .text.DRV_SPI_Lock
                0x00000000       0xc0 build/sam_e54_xpro_winc1500/production/_ext/138683810/drv_spi.o
 .text          0x00000000        0x0 build/sam_e54_xpro_winc1500/production/_ext/1232460686/wdrv_winc_eint.o
 .data          0x00000000        0x0 build/sam_e54_xpro_winc1500/production/_ext/1232460686/wdrv_winc_eint.o
 .bss           0x00000000        0x0 build/sam_e54_xpro_winc1500/production/_ext/1232460686/wdrv_winc_eint.o
 .text          0x00000000        0x0 build/sam_e54_xpro_winc1500/production/_ext/1232460686/wdrv_winc_gpio.o
 .data          0x00000000        0x0 build/sam_e54_xpro_winc1500/production/_ext/1232460686/wdrv_winc_gpio.o
 .bss           0x00000000        0x0 build/sam_e54_xpro_winc1500/production/_ext/1232460686/wdrv_winc_gpio.o
 .text          0x00000000        0x0 build/sam_e54_xpro_winc1500/production/_ext/930086057/wdrv_winc_spi.o
 .data          0x00000000        0x0 build/sam_e54_xpro_winc1500/production/_ext/930086057/wdrv_winc_spi.o
 .bss           0x00000000        0x0 build/sam_e54_xpro_winc1500/production/_ext/930086057/wdrv_winc_spi.o
 .text          0x00000000        0x0 build/sam_e54_xpro_winc1500/production/_ext/1121136421/nm_common.o
 .data          0x00000000        0x0 build/sam_e54_xpro_winc1500/production/_ext/1121136421/nm_common.o
 .bss           0x00000000        0x0 build/sam_e54_xpro_winc1500/production/_ext/1121136421/nm_common.o
 .text          0x00000000        0x0 build/sam_e54_xpro_winc1500/production/_ext/1089847528/m2m_hif.o
 .data          0x00000000        0x0 build/sam_e54_xpro_winc1500/production/_ext/1089847528/m2m_hif.o
 .bss           0x00000000        0x0 build/sam_e54_xpro_winc1500/production/_ext/1089847528/m2m_hif.o
 .text.hif_set_sleep_mode
                0x00000000        0xc build/sam_e54_xpro_winc1500/production/_ext/1089847528/m2m_hif.o
 .text.hif_get_sleep_mode
                0x00000000        0xc build/sam_e54_xpro_winc1500/production/_ext/1089847528/m2m_hif.o
 .text          0x00000000        0x0 build/sam_e54_xpro_winc1500/production/_ext/1089847528/m2m_periph.o
 .data          0x00000000        0x0 build/sam_e54_xpro_winc1500/production/_ext/1089847528/m2m_periph.o
 .bss           0x00000000        0x0 build/sam_e54_xpro_winc1500/production/_ext/1089847528/m2m_periph.o
 .text.m2m_periph_gpio_set_dir
                0x00000000       0x24 build/sam_e54_xpro_winc1500/production/_ext/1089847528/m2m_periph.o
 .text.m2m_periph_gpio_set_val
                0x00000000       0x24 build/sam_e54_xpro_winc1500/production/_ext/1089847528/m2m_periph.o
 .text.m2m_periph_gpio_get_val
                0x00000000       0x24 build/sam_e54_xpro_winc1500/production/_ext/1089847528/m2m_periph.o
 .text.m2m_periph_pullup_ctrl
                0x00000000        0x8 build/sam_e54_xpro_winc1500/production/_ext/1089847528/m2m_periph.o
 .debug_info    0x00000000     0x162d build/sam_e54_xpro_winc1500/production/_ext/1089847528/m2m_periph.o
 .debug_abbrev  0x00000000      0x2db build/sam_e54_xpro_winc1500/production/_ext/1089847528/m2m_periph.o
 .debug_loc     0x00000000      0x304 build/sam_e54_xpro_winc1500/production/_ext/1089847528/m2m_periph.o
 .debug_aranges
                0x00000000       0x38 build/sam_e54_xpro_winc1500/production/_ext/1089847528/m2m_periph.o
 .debug_ranges  0x00000000       0x28 build/sam_e54_xpro_winc1500/production/_ext/1089847528/m2m_periph.o
 .debug_line    0x00000000      0x42e build/sam_e54_xpro_winc1500/production/_ext/1089847528/m2m_periph.o
 .debug_str     0x00000000       0x68 build/sam_e54_xpro_winc1500/production/_ext/1089847528/m2m_periph.o
 .comment       0x00000000       0x54 build/sam_e54_xpro_winc1500/production/_ext/1089847528/m2m_periph.o
 .debug_frame   0x00000000       0x7c build/sam_e54_xpro_winc1500/production/_ext/1089847528/m2m_periph.o
 .ARM.attributes
                0x00000000       0x34 build/sam_e54_xpro_winc1500/production/_ext/1089847528/m2m_periph.o
 .text          0x00000000        0x0 build/sam_e54_xpro_winc1500/production/_ext/1089847528/m2m_wifi.o
 .data          0x00000000        0x0 build/sam_e54_xpro_winc1500/production/_ext/1089847528/m2m_wifi.o
 .bss           0x00000000        0x0 build/sam_e54_xpro_winc1500/production/_ext/1089847528/m2m_wifi.o
 .text.m2m_validate_ap_parameters
                0x00000000      0x114 build/sam_e54_xpro_winc1500/production/_ext/1089847528/m2m_wifi.o
 .text.m2m_wifi_send_crl
                0x00000000       0x20 build/sam_e54_xpro_winc1500/production/_ext/1089847528/m2m_wifi.o
 .text.m2m_wifi_init
                0x00000000       0x1a build/sam_e54_xpro_winc1500/production/_ext/1089847528/m2m_wifi.o
 .text.m2m_wifi_delete_sc
                0x00000000       0x2e build/sam_e54_xpro_winc1500/production/_ext/1089847528/m2m_wifi.o
 .text.m2m_wifi_connect_wep
                0x00000000        0x6 build/sam_e54_xpro_winc1500/production/_ext/1089847528/m2m_wifi.o
 .text.m2m_wifi_1x_set_option
                0x00000000      0x138 build/sam_e54_xpro_winc1500/production/_ext/1089847528/m2m_wifi.o
 .text.m2m_wifi_1x_get_option
                0x00000000       0xd0 build/sam_e54_xpro_winc1500/production/_ext/1089847528/m2m_wifi.o
 .text.m2m_wifi_connect_sc
                0x00000000       0xe8 build/sam_e54_xpro_winc1500/production/_ext/1089847528/m2m_wifi.o
 .text.m2m_wifi_connect
                0x00000000       0x16 build/sam_e54_xpro_winc1500/production/_ext/1089847528/m2m_wifi.o
 .text.m2m_wifi_disconnect
                0x00000000       0x1c build/sam_e54_xpro_winc1500/production/_ext/1089847528/m2m_wifi.o
 .text.m2m_wifi_set_mac_address
                0x00000000       0x2a build/sam_e54_xpro_winc1500/production/_ext/1089847528/m2m_wifi.o
 .text.m2m_wifi_set_lsn_int
                0x00000000       0x1e build/sam_e54_xpro_winc1500/production/_ext/1089847528/m2m_wifi.o
 .text.m2m_wifi_set_cust_InfoElement
                0x00000000       0x32 build/sam_e54_xpro_winc1500/production/_ext/1089847528/m2m_wifi.o
 .text.m2m_wifi_set_scan_options
                0x00000000       0xc0 build/sam_e54_xpro_winc1500/production/_ext/1089847528/m2m_wifi.o
 .text.m2m_wifi_set_stop_scan_on_first
                0x00000000       0x58 build/sam_e54_xpro_winc1500/production/_ext/1089847528/m2m_wifi.o
 .text.m2m_wifi_set_scan_region
                0x00000000       0x22 build/sam_e54_xpro_winc1500/production/_ext/1089847528/m2m_wifi.o
 .text.m2m_wifi_request_scan
                0x00000000       0x54 build/sam_e54_xpro_winc1500/production/_ext/1089847528/m2m_wifi.o
 .text.m2m_wifi_request_scan_passive
                0x00000000       0x58 build/sam_e54_xpro_winc1500/production/_ext/1089847528/m2m_wifi.o
 .text.m2m_wifi_request_scan_ssid_list
                0x00000000       0x90 build/sam_e54_xpro_winc1500/production/_ext/1089847528/m2m_wifi.o
 .text.m2m_wifi_wps
                0x00000000       0x3c build/sam_e54_xpro_winc1500/production/_ext/1089847528/m2m_wifi.o
 .text.m2m_wifi_wps_disable
                0x00000000       0x1c build/sam_e54_xpro_winc1500/production/_ext/1089847528/m2m_wifi.o
 .text.m2m_wifi_req_client_ctrl
                0x00000000       0x1c build/sam_e54_xpro_winc1500/production/_ext/1089847528/m2m_wifi.o
 .text.m2m_wifi_req_server_init
                0x00000000       0x1c build/sam_e54_xpro_winc1500/production/_ext/1089847528/m2m_wifi.o
 .text.m2m_wifi_p2p
                0x00000000       0x54 build/sam_e54_xpro_winc1500/production/_ext/1089847528/m2m_wifi.o
 .text.m2m_wifi_p2p_disconnect
                0x00000000       0x1c build/sam_e54_xpro_winc1500/production/_ext/1089847528/m2m_wifi.o
 .text.m2m_wifi_enable_ap_ext
                0x00000000       0x2a build/sam_e54_xpro_winc1500/production/_ext/1089847528/m2m_wifi.o
 .text.m2m_wifi_enable_ap
                0x00000000       0x28 build/sam_e54_xpro_winc1500/production/_ext/1089847528/m2m_wifi.o
 .text.m2m_wifi_set_gains
                0x00000000       0x26 build/sam_e54_xpro_winc1500/production/_ext/1089847528/m2m_wifi.o
 .text.m2m_wifi_disable_ap
                0x00000000       0x1c build/sam_e54_xpro_winc1500/production/_ext/1089847528/m2m_wifi.o
 .text.m2m_wifi_req_curr_rssi
                0x00000000       0x1c build/sam_e54_xpro_winc1500/production/_ext/1089847528/m2m_wifi.o
 .text.m2m_wifi_send_ethernet_pkt
                0x00000000       0x38 build/sam_e54_xpro_winc1500/production/_ext/1089847528/m2m_wifi.o
 .text.m2m_wifi_get_otp_mac_address
                0x00000000       0x28 build/sam_e54_xpro_winc1500/production/_ext/1089847528/m2m_wifi.o
 .text.m2m_wifi_get_sleep_mode
                0x00000000        0x8 build/sam_e54_xpro_winc1500/production/_ext/1089847528/m2m_wifi.o
 .text.m2m_wifi_set_sleep_mode
                0x00000000       0x4c build/sam_e54_xpro_winc1500/production/_ext/1089847528/m2m_wifi.o
 .text.m2m_wifi_request_sleep
                0x00000000       0x2c build/sam_e54_xpro_winc1500/production/_ext/1089847528/m2m_wifi.o
 .text.m2m_wifi_set_device_name
                0x00000000       0x30 build/sam_e54_xpro_winc1500/production/_ext/1089847528/m2m_wifi.o
 .text.m2m_wifi_configure_sntp
                0x00000000       0x40 build/sam_e54_xpro_winc1500/production/_ext/1089847528/m2m_wifi.o
 .text.m2m_wifi_get_chipId
                0x00000000        0x8 build/sam_e54_xpro_winc1500/production/_ext/1089847528/m2m_wifi.o
 .text.m2m_wifi_get_firmware_version
                0x00000000       0x1e build/sam_e54_xpro_winc1500/production/_ext/1089847528/m2m_wifi.o
 .text.m2m_wifi_start_provision_mode_ext
                0x00000000       0xa4 build/sam_e54_xpro_winc1500/production/_ext/1089847528/m2m_wifi.o
 .text.m2m_wifi_start_provision_mode
                0x00000000       0x30 build/sam_e54_xpro_winc1500/production/_ext/1089847528/m2m_wifi.o
 .text.m2m_wifi_stop_provision_mode
                0x00000000       0x1c build/sam_e54_xpro_winc1500/production/_ext/1089847528/m2m_wifi.o
 .text.m2m_wifi_get_connection_info
                0x00000000       0x1c build/sam_e54_xpro_winc1500/production/_ext/1089847528/m2m_wifi.o
 .text.m2m_wifi_set_system_time
                0x00000000       0x20 build/sam_e54_xpro_winc1500/production/_ext/1089847528/m2m_wifi.o
 .text.m2m_wifi_get_system_time
                0x00000000       0x1c build/sam_e54_xpro_winc1500/production/_ext/1089847528/m2m_wifi.o
 .text.m2m_wifi_enable_sntp
                0x00000000       0x24 build/sam_e54_xpro_winc1500/production/_ext/1089847528/m2m_wifi.o
 .text.m2m_wifi_set_power_profile
                0x00000000       0x22 build/sam_e54_xpro_winc1500/production/_ext/1089847528/m2m_wifi.o
 .text.m2m_wifi_set_tx_power
                0x00000000       0x22 build/sam_e54_xpro_winc1500/production/_ext/1089847528/m2m_wifi.o
 .text.m2m_wifi_set_gain_table_idx
                0x00000000       0x22 build/sam_e54_xpro_winc1500/production/_ext/1089847528/m2m_wifi.o
 .text.m2m_wifi_enable_firmware_logs
                0x00000000       0x22 build/sam_e54_xpro_winc1500/production/_ext/1089847528/m2m_wifi.o
 .text.m2m_wifi_set_battery_voltage
                0x00000000       0x26 build/sam_e54_xpro_winc1500/production/_ext/1089847528/m2m_wifi.o
 .text.m2m_wifi_prng_get_random_bytes
                0x00000000       0x58 build/sam_e54_xpro_winc1500/production/_ext/1089847528/m2m_wifi.o
 .text.m2m_wifi_conf_auto_rate
                0x00000000       0x1e build/sam_e54_xpro_winc1500/production/_ext/1089847528/m2m_wifi.o
 .text.m2m_wifi_enable_mac_mcast
                0x00000000       0x70 build/sam_e54_xpro_winc1500/production/_ext/1089847528/m2m_wifi.o
 .text.m2m_wifi_set_receive_buffer
                0x00000000       0x38 build/sam_e54_xpro_winc1500/production/_ext/1089847528/m2m_wifi.o
 .text.m2m_wifi_reinit_hold
                0x00000000        0xe build/sam_e54_xpro_winc1500/production/_ext/1089847528/m2m_wifi.o
 .text.m2m_wifi_reinit
                0x00000000       0x1a build/sam_e54_xpro_winc1500/production/_ext/1089847528/m2m_wifi.o
 .text.m2m_wifi_reinit_start
                0x00000000        0x8 build/sam_e54_xpro_winc1500/production/_ext/1089847528/m2m_wifi.o
 .text.m2m_wifi_enable_roaming
                0x00000000       0x32 build/sam_e54_xpro_winc1500/production/_ext/1089847528/m2m_wifi.o
 .text.m2m_wifi_disable_roaming
                0x00000000       0x22 build/sam_e54_xpro_winc1500/production/_ext/1089847528/m2m_wifi.o
 .text.m2m_wifi_enable_XO_during_sleep
                0x00000000       0x2c build/sam_e54_xpro_winc1500/production/_ext/1089847528/m2m_wifi.o
 .text          0x00000000        0x0 build/sam_e54_xpro_winc1500/production/_ext/1089847528/nmasic.o
 .data          0x00000000        0x0 build/sam_e54_xpro_winc1500/production/_ext/1089847528/nmasic.o
 .bss           0x00000000        0x0 build/sam_e54_xpro_winc1500/production/_ext/1089847528/nmasic.o
 .text.chip_idle
                0x00000000       0x2c build/sam_e54_xpro_winc1500/production/_ext/1089847528/nmasic.o
 .text.cpu_start
                0x00000000       0xa0 build/sam_e54_xpro_winc1500/production/_ext/1089847528/nmasic.o
 .text.nmi_get_rfrevid
                0x00000000       0x1c build/sam_e54_xpro_winc1500/production/_ext/1089847528/nmasic.o
 .text.restore_pmu_settings_after_global_reset
                0x00000000       0x24 build/sam_e54_xpro_winc1500/production/_ext/1089847528/nmasic.o
 .text.nmi_update_pll
                0x00000000       0x26 build/sam_e54_xpro_winc1500/production/_ext/1089847528/nmasic.o
 .text.nmi_set_sys_clk_src_to_xo
                0x00000000       0x1c build/sam_e54_xpro_winc1500/production/_ext/1089847528/nmasic.o
 .text.chip_reset
                0x00000000       0x18 build/sam_e54_xpro_winc1500/production/_ext/1089847528/nmasic.o
 .text.set_gpio_dir
                0x00000000       0x40 build/sam_e54_xpro_winc1500/production/_ext/1089847528/nmasic.o
 .text.set_gpio_val
                0x00000000       0x40 build/sam_e54_xpro_winc1500/production/_ext/1089847528/nmasic.o
 .text.get_gpio_val
                0x00000000       0x28 build/sam_e54_xpro_winc1500/production/_ext/1089847528/nmasic.o
 .text.pullup_ctrl
                0x00000000       0x68 build/sam_e54_xpro_winc1500/production/_ext/1089847528/nmasic.o
 .text.nmi_get_otp_mac_address
                0x00000000       0xa8 build/sam_e54_xpro_winc1500/production/_ext/1089847528/nmasic.o
 .text          0x00000000        0x0 build/sam_e54_xpro_winc1500/production/_ext/1089847528/nmbus.o
 .data          0x00000000        0x0 build/sam_e54_xpro_winc1500/production/_ext/1089847528/nmbus.o
 .bss           0x00000000        0x0 build/sam_e54_xpro_winc1500/production/_ext/1089847528/nmbus.o
 .text.nm_bus_iface_reconfigure
                0x00000000        0x4 build/sam_e54_xpro_winc1500/production/_ext/1089847528/nmbus.o
 .text          0x00000000        0x0 build/sam_e54_xpro_winc1500/production/_ext/1089847528/nmdrv.o
 .data          0x00000000        0x0 build/sam_e54_xpro_winc1500/production/_ext/1089847528/nmdrv.o
 .bss           0x00000000        0x0 build/sam_e54_xpro_winc1500/production/_ext/1089847528/nmdrv.o
 .text.nm_get_firmware_info
                0x00000000       0xac build/sam_e54_xpro_winc1500/production/_ext/1089847528/nmdrv.o
 .text.nm_get_ota_firmware_info
                0x00000000       0xc4 build/sam_e54_xpro_winc1500/production/_ext/1089847528/nmdrv.o
 .text.nm_drv_init
                0x00000000       0x1a build/sam_e54_xpro_winc1500/production/_ext/1089847528/nmdrv.o
 .text          0x00000000        0x0 build/sam_e54_xpro_winc1500/production/_ext/1089847528/nmspi.o
 .data          0x00000000        0x0 build/sam_e54_xpro_winc1500/production/_ext/1089847528/nmspi.o
 .bss           0x00000000        0x0 build/sam_e54_xpro_winc1500/production/_ext/1089847528/nmspi.o
 .text          0x00000000        0x0 build/sam_e54_xpro_winc1500/production/_ext/1089847528/m2m_ota.o
 .data          0x00000000        0x0 build/sam_e54_xpro_winc1500/production/_ext/1089847528/m2m_ota.o
 .bss           0x00000000        0x0 build/sam_e54_xpro_winc1500/production/_ext/1089847528/m2m_ota.o
 .text.m2m_ota_host_file_get_id
                0x00000000        0xc build/sam_e54_xpro_winc1500/production/_ext/1089847528/m2m_ota.o
 .text.m2m_ota_notif_set_url
                0x00000000       0x24 build/sam_e54_xpro_winc1500/production/_ext/1089847528/m2m_ota.o
 .text.m2m_ota_notif_check_for_update
                0x00000000       0x1c build/sam_e54_xpro_winc1500/production/_ext/1089847528/m2m_ota.o
 .text.m2m_ota_notif_sched
                0x00000000       0x1c build/sam_e54_xpro_winc1500/production/_ext/1089847528/m2m_ota.o
 .text.m2m_ota_start_update
                0x00000000       0x24 build/sam_e54_xpro_winc1500/production/_ext/1089847528/m2m_ota.o
 .text.m2m_ota_rollback
                0x00000000       0x1c build/sam_e54_xpro_winc1500/production/_ext/1089847528/m2m_ota.o
 .text.m2m_ota_abort
                0x00000000       0x1c build/sam_e54_xpro_winc1500/production/_ext/1089847528/m2m_ota.o
 .text.m2m_ota_switch_firmware
                0x00000000       0x1c build/sam_e54_xpro_winc1500/production/_ext/1089847528/m2m_ota.o
 .text.m2m_ota_get_firmware_version
                0x00000000       0x1e build/sam_e54_xpro_winc1500/production/_ext/1089847528/m2m_ota.o
 .text.m2m_ota_host_file_get
                0x00000000       0x90 build/sam_e54_xpro_winc1500/production/_ext/1089847528/m2m_ota.o
 .text.m2m_ota_host_file_erase
                0x00000000       0x50 build/sam_e54_xpro_winc1500/production/_ext/1089847528/m2m_ota.o
 .text          0x00000000        0x0 build/sam_e54_xpro_winc1500/production/_ext/1089847528/m2m_ssl.o
 .data          0x00000000        0x0 build/sam_e54_xpro_winc1500/production/_ext/1089847528/m2m_ssl.o
 .bss           0x00000000        0x0 build/sam_e54_xpro_winc1500/production/_ext/1089847528/m2m_ssl.o
 .text.m2m_ssl_handshake_rsp
                0x00000000       0x1c build/sam_e54_xpro_winc1500/production/_ext/1089847528/m2m_ssl.o
 .text.m2m_ssl_send_certs_to_winc
                0x00000000      0x148 build/sam_e54_xpro_winc1500/production/_ext/1089847528/m2m_ssl.o
 .text.m2m_ssl_retrieve_next_for_verifying
                0x00000000      0x200 build/sam_e54_xpro_winc1500/production/_ext/1089847528/m2m_ssl.o
 .text.m2m_ssl_retrieve_cert
                0x00000000       0x24 build/sam_e54_xpro_winc1500/production/_ext/1089847528/m2m_ssl.o
 .text.m2m_ssl_retrieve_hash
                0x00000000       0x5c build/sam_e54_xpro_winc1500/production/_ext/1089847528/m2m_ssl.o
 .text.m2m_ssl_stop_retrieving
                0x00000000       0x2c build/sam_e54_xpro_winc1500/production/_ext/1089847528/m2m_ssl.o
 .text.m2m_ssl_stop_processing_certs
                0x00000000        0x8 build/sam_e54_xpro_winc1500/production/_ext/1089847528/m2m_ssl.o
 .text.m2m_ssl_ecc_process_done
                0x00000000        0xc build/sam_e54_xpro_winc1500/production/_ext/1089847528/m2m_ssl.o
 .text.m2m_ssl_set_active_ciphersuites
                0x00000000       0x20 build/sam_e54_xpro_winc1500/production/_ext/1089847528/m2m_ssl.o
 .text          0x00000000        0x0 build/sam_e54_xpro_winc1500/production/_ext/663370141/socket.o
 .data          0x00000000        0x0 build/sam_e54_xpro_winc1500/production/_ext/663370141/socket.o
 .bss           0x00000000        0x0 build/sam_e54_xpro_winc1500/production/_ext/663370141/socket.o
 .text.registerSocketCallback
                0x00000000       0x14 build/sam_e54_xpro_winc1500/production/_ext/663370141/socket.o
 .text.registerSocketResolveCallback
                0x00000000        0xc build/sam_e54_xpro_winc1500/production/_ext/663370141/socket.o
 .text.bind     0x00000000       0x94 build/sam_e54_xpro_winc1500/production/_ext/663370141/socket.o
 .text.listen   0x00000000       0x60 build/sam_e54_xpro_winc1500/production/_ext/663370141/socket.o
 .text.accept   0x00000000       0x28 build/sam_e54_xpro_winc1500/production/_ext/663370141/socket.o
 .text.secure   0x00000000       0xa8 build/sam_e54_xpro_winc1500/production/_ext/663370141/socket.o
 .text.sendto   0x00000000       0xa8 build/sam_e54_xpro_winc1500/production/_ext/663370141/socket.o
 .text.recvfrom
                0x00000000       0x9c build/sam_e54_xpro_winc1500/production/_ext/663370141/socket.o
 .text.gethostbyname
                0x00000000       0x2e build/sam_e54_xpro_winc1500/production/_ext/663370141/socket.o
 .text.setsockopt
                0x00000000      0x1a4 build/sam_e54_xpro_winc1500/production/_ext/663370141/socket.o
 .text.getsockopt
                0x00000000        0x6 build/sam_e54_xpro_winc1500/production/_ext/663370141/socket.o
 .text.m2m_ping_req
                0x00000000       0x54 build/sam_e54_xpro_winc1500/production/_ext/663370141/socket.o
 .text.set_alpn_list
                0x00000000       0xa4 build/sam_e54_xpro_winc1500/production/_ext/663370141/socket.o
 .text.get_alpn_index
                0x00000000       0x40 build/sam_e54_xpro_winc1500/production/_ext/663370141/socket.o
 .text.sslEnableCertExpirationCheck
                0x00000000       0x20 build/sam_e54_xpro_winc1500/production/_ext/663370141/socket.o
 .text.IsSocketReady
                0x00000000        0xc build/sam_e54_xpro_winc1500/production/_ext/663370141/socket.o
 .text.get_error_detail
                0x00000000       0x3c build/sam_e54_xpro_winc1500/production/_ext/663370141/socket.o
 .bss.gsockerrno
                0x00000000        0x1 build/sam_e54_xpro_winc1500/production/_ext/663370141/socket.o
 .bss.gu16BufferSize
                0x00000000        0x2 build/sam_e54_xpro_winc1500/production/_ext/663370141/socket.o
 .bss.gu8OpCode
                0x00000000        0x1 build/sam_e54_xpro_winc1500/production/_ext/663370141/socket.o
 .text          0x00000000        0x0 build/sam_e54_xpro_winc1500/production/_ext/663370141/inet_ntop.o
 .data          0x00000000        0x0 build/sam_e54_xpro_winc1500/production/_ext/663370141/inet_ntop.o
 .bss           0x00000000        0x0 build/sam_e54_xpro_winc1500/production/_ext/663370141/inet_ntop.o
 .text          0x00000000        0x0 build/sam_e54_xpro_winc1500/production/_ext/663370141/inet_addr.o
 .data          0x00000000        0x0 build/sam_e54_xpro_winc1500/production/_ext/663370141/inet_addr.o
 .bss           0x00000000        0x0 build/sam_e54_xpro_winc1500/production/_ext/663370141/inet_addr.o
 .text          0x00000000        0x0 build/sam_e54_xpro_winc1500/production/_ext/1114755757/spi_flash.o
 .data          0x00000000        0x0 build/sam_e54_xpro_winc1500/production/_ext/1114755757/spi_flash.o
 .bss           0x00000000        0x0 build/sam_e54_xpro_winc1500/production/_ext/1114755757/spi_flash.o
 .text.spi_flash_write_enable
                0x00000000       0x78 build/sam_e54_xpro_winc1500/production/_ext/1114755757/spi_flash.o
 .text.spi_flash_read_status_reg
                0x00000000       0x84 build/sam_e54_xpro_winc1500/production/_ext/1114755757/spi_flash.o
 .text.spi_flash_pp
                0x00000000      0x138 build/sam_e54_xpro_winc1500/production/_ext/1114755757/spi_flash.o
 .text.spi_flash_write
                0x00000000       0x90 build/sam_e54_xpro_winc1500/production/_ext/1114755757/spi_flash.o
 .text.spi_flash_erase
                0x00000000      0x134 build/sam_e54_xpro_winc1500/production/_ext/1114755757/spi_flash.o
 .text.spi_flash_get_size
                0x00000000      0x110 build/sam_e54_xpro_winc1500/production/_ext/1114755757/spi_flash.o
 .rodata        0x00000000       0x74 build/sam_e54_xpro_winc1500/production/_ext/1114755757/spi_flash.o
 .bss.gu32InternalFlashSize.11518
                0x00000000        0x4 build/sam_e54_xpro_winc1500/production/_ext/1114755757/spi_flash.o
 .text          0x00000000        0x0 build/sam_e54_xpro_winc1500/production/_ext/1114755757/flexible_flash.o
 .data          0x00000000        0x0 build/sam_e54_xpro_winc1500/production/_ext/1114755757/flexible_flash.o
 .bss           0x00000000        0x0 build/sam_e54_xpro_winc1500/production/_ext/1114755757/flexible_flash.o
 .text          0x00000000        0x0 build/sam_e54_xpro_winc1500/production/_ext/550069128/wdrv_winc_osal.o
 .data          0x00000000        0x0 build/sam_e54_xpro_winc1500/production/_ext/550069128/wdrv_winc_osal.o
 .bss           0x00000000        0x0 build/sam_e54_xpro_winc1500/production/_ext/550069128/wdrv_winc_osal.o
 .text          0x00000000        0x0 build/sam_e54_xpro_winc1500/production/_ext/810064134/wdrv_winc.o
 .data          0x00000000        0x0 build/sam_e54_xpro_winc1500/production/_ext/810064134/wdrv_winc.o
 .bss           0x00000000        0x0 build/sam_e54_xpro_winc1500/production/_ext/810064134/wdrv_winc.o
 .text.WDRV_WINC_Deinitialize
                0x00000000       0x50 build/sam_e54_xpro_winc1500/production/_ext/810064134/wdrv_winc.o
 .text.WDRV_WINC_Reinitialize
                0x00000000        0x2 build/sam_e54_xpro_winc1500/production/_ext/810064134/wdrv_winc.o
 .text.WDRV_WINC_Close
                0x00000000       0x24 build/sam_e54_xpro_winc1500/production/_ext/810064134/wdrv_winc.o
 .text.WDRV_WINC_MulticastMACFilterAdd
                0x00000000       0x26 build/sam_e54_xpro_winc1500/production/_ext/810064134/wdrv_winc.o
 .text.WDRV_WINC_MulticastMACFilterRemove
                0x00000000       0x26 build/sam_e54_xpro_winc1500/production/_ext/810064134/wdrv_winc.o
 .text.WDRV_WINC_EthernetAddressGet
                0x00000000       0x28 build/sam_e54_xpro_winc1500/production/_ext/810064134/wdrv_winc.o
 .text.WDRV_WINC_OperatingModeGet
                0x00000000       0x28 build/sam_e54_xpro_winc1500/production/_ext/810064134/wdrv_winc.o
 .text.WDRV_WINC_UserHandleSet
                0x00000000       0x22 build/sam_e54_xpro_winc1500/production/_ext/810064134/wdrv_winc.o
 .text.WDRV_WINC_UserHandleGet
                0x00000000       0x20 build/sam_e54_xpro_winc1500/production/_ext/810064134/wdrv_winc.o
 .text.WDRV_WINC_InfoDriverVersionGet
                0x00000000       0x30 build/sam_e54_xpro_winc1500/production/_ext/810064134/wdrv_winc.o
 .text.WDRV_WINC_InfoDeviceFirmwareVersionGet
                0x00000000       0x8a build/sam_e54_xpro_winc1500/production/_ext/810064134/wdrv_winc.o
 .text.WDRV_WINC_InfoDeviceIDGet
                0x00000000       0x1c build/sam_e54_xpro_winc1500/production/_ext/810064134/wdrv_winc.o
 .text.WDRV_WINC_InfoDeviceMACAddressGet
                0x00000000       0x48 build/sam_e54_xpro_winc1500/production/_ext/810064134/wdrv_winc.o
 .text.WDRV_WINC_InfoDeviceNameSet
                0x00000000       0x36 build/sam_e54_xpro_winc1500/production/_ext/810064134/wdrv_winc.o
 .text.WDRV_WINC_GainTableIndexSet
                0x00000000       0x26 build/sam_e54_xpro_winc1500/production/_ext/810064134/wdrv_winc.o
 .text.WDRV_WINC_AutoRateSelectTransmitRate
                0x00000000       0x7c build/sam_e54_xpro_winc1500/production/_ext/810064134/wdrv_winc.o
 .rodata.arRateTranslateTable
                0x00000000       0x18 build/sam_e54_xpro_winc1500/production/_ext/810064134/wdrv_winc.o
 .text          0x00000000        0x0 build/sam_e54_xpro_winc1500/production/_ext/810064134/wdrv_winc_assoc.o
 .data          0x00000000        0x0 build/sam_e54_xpro_winc1500/production/_ext/810064134/wdrv_winc_assoc.o
 .bss           0x00000000        0x0 build/sam_e54_xpro_winc1500/production/_ext/810064134/wdrv_winc_assoc.o
 .text.WDRV_WINC_AssocSSIDGet
                0x00000000       0x68 build/sam_e54_xpro_winc1500/production/_ext/810064134/wdrv_winc_assoc.o
 .text.WDRV_WINC_AssocPeerAddressGet
                0x00000000       0x54 build/sam_e54_xpro_winc1500/production/_ext/810064134/wdrv_winc_assoc.o
 .text.WDRV_WINC_AssocAuthTypeGet
                0x00000000       0x4c build/sam_e54_xpro_winc1500/production/_ext/810064134/wdrv_winc_assoc.o
 .text.WDRV_WINC_AssocRSSIGet
                0x00000000       0x56 build/sam_e54_xpro_winc1500/production/_ext/810064134/wdrv_winc_assoc.o
 .debug_info    0x00000000     0x31aa build/sam_e54_xpro_winc1500/production/_ext/810064134/wdrv_winc_assoc.o
 .debug_abbrev  0x00000000      0x2f6 build/sam_e54_xpro_winc1500/production/_ext/810064134/wdrv_winc_assoc.o
 .debug_loc     0x00000000      0x86a build/sam_e54_xpro_winc1500/production/_ext/810064134/wdrv_winc_assoc.o
 .debug_aranges
                0x00000000       0x38 build/sam_e54_xpro_winc1500/production/_ext/810064134/wdrv_winc_assoc.o
 .debug_ranges  0x00000000       0x28 build/sam_e54_xpro_winc1500/production/_ext/810064134/wdrv_winc_assoc.o
 .debug_line    0x00000000      0x6ee build/sam_e54_xpro_winc1500/production/_ext/810064134/wdrv_winc_assoc.o
 .debug_str     0x00000000       0xbc build/sam_e54_xpro_winc1500/production/_ext/810064134/wdrv_winc_assoc.o
 .comment       0x00000000       0x54 build/sam_e54_xpro_winc1500/production/_ext/810064134/wdrv_winc_assoc.o
 .debug_frame   0x00000000       0xac build/sam_e54_xpro_winc1500/production/_ext/810064134/wdrv_winc_assoc.o
 .ARM.attributes
                0x00000000       0x34 build/sam_e54_xpro_winc1500/production/_ext/810064134/wdrv_winc_assoc.o
 .text          0x00000000        0x0 build/sam_e54_xpro_winc1500/production/_ext/810064134/wdrv_winc_authctx.o
 .data          0x00000000        0x0 build/sam_e54_xpro_winc1500/production/_ext/810064134/wdrv_winc_authctx.o
 .bss           0x00000000        0x0 build/sam_e54_xpro_winc1500/production/_ext/810064134/wdrv_winc_authctx.o
 .text.WDRV_WINC_AuthCtxIsValid
                0x00000000       0x22 build/sam_e54_xpro_winc1500/production/_ext/810064134/wdrv_winc_authctx.o
 .text.WDRV_WINC_AuthCtxSetDefaults
                0x00000000        0xe build/sam_e54_xpro_winc1500/production/_ext/810064134/wdrv_winc_authctx.o
 .text.WDRV_WINC_AuthCtxSetWPAEnterpriseMSCHAPv2
                0x00000000       0x9c build/sam_e54_xpro_winc1500/production/_ext/810064134/wdrv_winc_authctx.o
 .text.WDRV_WINC_AuthCtxSetWPAEnterpriseTLS
                0x00000000      0x178 build/sam_e54_xpro_winc1500/production/_ext/810064134/wdrv_winc_authctx.o
 .rodata.rsaPriKeyMap
                0x00000000       0x28 build/sam_e54_xpro_winc1500/production/_ext/810064134/wdrv_winc_authctx.o
 .text          0x00000000        0x0 build/sam_e54_xpro_winc1500/production/_ext/810064134/wdrv_winc_bssctx.o
 .data          0x00000000        0x0 build/sam_e54_xpro_winc1500/production/_ext/810064134/wdrv_winc_bssctx.o
 .bss           0x00000000        0x0 build/sam_e54_xpro_winc1500/production/_ext/810064134/wdrv_winc_bssctx.o
 .text.WDRV_WINC_BSSCtxSetBSSID
                0x00000000       0x40 build/sam_e54_xpro_winc1500/production/_ext/810064134/wdrv_winc_bssctx.o
 .text.WDRV_WINC_BSSCtxSetSSIDVisibility
                0x00000000       0x20 build/sam_e54_xpro_winc1500/production/_ext/810064134/wdrv_winc_bssctx.o
 .text          0x00000000        0x0 build/sam_e54_xpro_winc1500/production/_ext/810064134/wdrv_winc_bssfind.o
 .data          0x00000000        0x0 build/sam_e54_xpro_winc1500/production/_ext/810064134/wdrv_winc_bssfind.o
 .bss           0x00000000        0x0 build/sam_e54_xpro_winc1500/production/_ext/810064134/wdrv_winc_bssfind.o
 .text.WDRV_WINC_BSSFindFirst
                0x00000000      0x11e build/sam_e54_xpro_winc1500/production/_ext/810064134/wdrv_winc_bssfind.o
 .text.WDRV_WINC_BSSFindNext
                0x00000000       0x5e build/sam_e54_xpro_winc1500/production/_ext/810064134/wdrv_winc_bssfind.o
 .text.WDRV_WINC_BSSFindReset
                0x00000000       0x50 build/sam_e54_xpro_winc1500/production/_ext/810064134/wdrv_winc_bssfind.o
 .text.WDRV_WINC_BSSFindGetInfo
                0x00000000       0x5c build/sam_e54_xpro_winc1500/production/_ext/810064134/wdrv_winc_bssfind.o
 .text.WDRV_WINC_BSSFindSetScanParameters
                0x00000000       0x80 build/sam_e54_xpro_winc1500/production/_ext/810064134/wdrv_winc_bssfind.o
 .text.WDRV_WINC_BSSFindSetRSSIThreshold
                0x00000000       0x2a build/sam_e54_xpro_winc1500/production/_ext/810064134/wdrv_winc_bssfind.o
 .text.WDRV_WINC_BSSFindSetEnabledChannels
                0x00000000       0x2e build/sam_e54_xpro_winc1500/production/_ext/810064134/wdrv_winc_bssfind.o
 .text.WDRV_WINC_BSSFindSetScanMatchMode
                0x00000000       0x3c build/sam_e54_xpro_winc1500/production/_ext/810064134/wdrv_winc_bssfind.o
 .text.WDRV_WINC_BSSFindGetNumBSSResults
                0x00000000       0x2c build/sam_e54_xpro_winc1500/production/_ext/810064134/wdrv_winc_bssfind.o
 .text.WDRV_WINC_BSSFindInProgress
                0x00000000       0x1c build/sam_e54_xpro_winc1500/production/_ext/810064134/wdrv_winc_bssfind.o
 .debug_info    0x00000000     0x3aef build/sam_e54_xpro_winc1500/production/_ext/810064134/wdrv_winc_bssfind.o
 .debug_abbrev  0x00000000      0x3a6 build/sam_e54_xpro_winc1500/production/_ext/810064134/wdrv_winc_bssfind.o
 .debug_loc     0x00000000     0x1196 build/sam_e54_xpro_winc1500/production/_ext/810064134/wdrv_winc_bssfind.o
 .debug_aranges
                0x00000000       0x68 build/sam_e54_xpro_winc1500/production/_ext/810064134/wdrv_winc_bssfind.o
 .debug_ranges  0x00000000       0x70 build/sam_e54_xpro_winc1500/production/_ext/810064134/wdrv_winc_bssfind.o
 .debug_line    0x00000000      0xa16 build/sam_e54_xpro_winc1500/production/_ext/810064134/wdrv_winc_bssfind.o
 .debug_str     0x00000000      0x146 build/sam_e54_xpro_winc1500/production/_ext/810064134/wdrv_winc_bssfind.o
 .comment       0x00000000       0x54 build/sam_e54_xpro_winc1500/production/_ext/810064134/wdrv_winc_bssfind.o
 .debug_frame   0x00000000      0x138 build/sam_e54_xpro_winc1500/production/_ext/810064134/wdrv_winc_bssfind.o
 .ARM.attributes
                0x00000000       0x34 build/sam_e54_xpro_winc1500/production/_ext/810064134/wdrv_winc_bssfind.o
 .text          0x00000000        0x0 build/sam_e54_xpro_winc1500/production/_ext/810064134/wdrv_winc_custie.o
 .data          0x00000000        0x0 build/sam_e54_xpro_winc1500/production/_ext/810064134/wdrv_winc_custie.o
 .bss           0x00000000        0x0 build/sam_e54_xpro_winc1500/production/_ext/810064134/wdrv_winc_custie.o
 .text.WDRV_WINC_CustIEStoreCtxSetStorage
                0x00000000       0x2c build/sam_e54_xpro_winc1500/production/_ext/810064134/wdrv_winc_custie.o
 .text.WDRV_WINC_CustIEStoreCtxAddIE
                0x00000000       0x5c build/sam_e54_xpro_winc1500/production/_ext/810064134/wdrv_winc_custie.o
 .text.WDRV_WINC_CustIEStoreCtxRemoveIE
                0x00000000       0x72 build/sam_e54_xpro_winc1500/production/_ext/810064134/wdrv_winc_custie.o
 .debug_info    0x00000000     0x165c build/sam_e54_xpro_winc1500/production/_ext/810064134/wdrv_winc_custie.o
 .debug_abbrev  0x00000000      0x276 build/sam_e54_xpro_winc1500/production/_ext/810064134/wdrv_winc_custie.o
 .debug_loc     0x00000000      0x3c5 build/sam_e54_xpro_winc1500/production/_ext/810064134/wdrv_winc_custie.o
 .debug_aranges
                0x00000000       0x30 build/sam_e54_xpro_winc1500/production/_ext/810064134/wdrv_winc_custie.o
 .debug_ranges  0x00000000       0x20 build/sam_e54_xpro_winc1500/production/_ext/810064134/wdrv_winc_custie.o
 .debug_line    0x00000000      0x4be build/sam_e54_xpro_winc1500/production/_ext/810064134/wdrv_winc_custie.o
 .debug_str     0x00000000       0x24 build/sam_e54_xpro_winc1500/production/_ext/810064134/wdrv_winc_custie.o
 .comment       0x00000000       0x54 build/sam_e54_xpro_winc1500/production/_ext/810064134/wdrv_winc_custie.o
 .debug_frame   0x00000000       0xa4 build/sam_e54_xpro_winc1500/production/_ext/810064134/wdrv_winc_custie.o
 .ARM.attributes
                0x00000000       0x34 build/sam_e54_xpro_winc1500/production/_ext/810064134/wdrv_winc_custie.o
 .text          0x00000000        0x0 build/sam_e54_xpro_winc1500/production/_ext/810064134/wdrv_winc_host_file.o
 .data          0x00000000        0x0 build/sam_e54_xpro_winc1500/production/_ext/810064134/wdrv_winc_host_file.o
 .bss           0x00000000        0x0 build/sam_e54_xpro_winc1500/production/_ext/810064134/wdrv_winc_host_file.o
 .text.WDRV_WINC_HostFileDownload
                0x00000000       0xac build/sam_e54_xpro_winc1500/production/_ext/810064134/wdrv_winc_host_file.o
 .text.WDRV_WINC_HostFileErase
                0x00000000       0xa8 build/sam_e54_xpro_winc1500/production/_ext/810064134/wdrv_winc_host_file.o
 .text.WDRV_WINC_HostFileFindByID
                0x00000000       0xfc build/sam_e54_xpro_winc1500/production/_ext/810064134/wdrv_winc_host_file.o
 .text.WDRV_WINC_HostFileGetSize
                0x00000000       0x40 build/sam_e54_xpro_winc1500/production/_ext/810064134/wdrv_winc_host_file.o
 .text.WDRV_WINC_HostFileUpdateReadBuffer
                0x00000000       0x4e build/sam_e54_xpro_winc1500/production/_ext/810064134/wdrv_winc_host_file.o
 .text          0x00000000        0x0 build/sam_e54_xpro_winc1500/production/_ext/810064134/wdrv_winc_httpprovctx.o
 .data          0x00000000        0x0 build/sam_e54_xpro_winc1500/production/_ext/810064134/wdrv_winc_httpprovctx.o
 .bss           0x00000000        0x0 build/sam_e54_xpro_winc1500/production/_ext/810064134/wdrv_winc_httpprovctx.o
 .text.WDRV_WINC_HTTPProvCtxSetDefaults
                0x00000000       0x14 build/sam_e54_xpro_winc1500/production/_ext/810064134/wdrv_winc_httpprovctx.o
 .text.WDRV_WINC_HTTPProvCtxSetDomainName
                0x00000000       0x36 build/sam_e54_xpro_winc1500/production/_ext/810064134/wdrv_winc_httpprovctx.o
 .text.WDRV_WINC_HTTPProvCtxSetURLWildcard
                0x00000000        0xc build/sam_e54_xpro_winc1500/production/_ext/810064134/wdrv_winc_httpprovctx.o
 .text.WDRV_WINC_HTTPProvCtxSetConnectCallback
                0x00000000        0xc build/sam_e54_xpro_winc1500/production/_ext/810064134/wdrv_winc_httpprovctx.o
 .debug_info    0x00000000     0x19fe build/sam_e54_xpro_winc1500/production/_ext/810064134/wdrv_winc_httpprovctx.o
 .debug_abbrev  0x00000000      0x2c9 build/sam_e54_xpro_winc1500/production/_ext/810064134/wdrv_winc_httpprovctx.o
 .debug_loc     0x00000000      0x1db build/sam_e54_xpro_winc1500/production/_ext/810064134/wdrv_winc_httpprovctx.o
 .debug_aranges
                0x00000000       0x38 build/sam_e54_xpro_winc1500/production/_ext/810064134/wdrv_winc_httpprovctx.o
 .debug_ranges  0x00000000       0x28 build/sam_e54_xpro_winc1500/production/_ext/810064134/wdrv_winc_httpprovctx.o
 .debug_line    0x00000000      0x479 build/sam_e54_xpro_winc1500/production/_ext/810064134/wdrv_winc_httpprovctx.o
 .debug_str     0x00000000       0x68 build/sam_e54_xpro_winc1500/production/_ext/810064134/wdrv_winc_httpprovctx.o
 .comment       0x00000000       0x54 build/sam_e54_xpro_winc1500/production/_ext/810064134/wdrv_winc_httpprovctx.o
 .debug_frame   0x00000000       0x70 build/sam_e54_xpro_winc1500/production/_ext/810064134/wdrv_winc_httpprovctx.o
 .ARM.attributes
                0x00000000       0x34 build/sam_e54_xpro_winc1500/production/_ext/810064134/wdrv_winc_httpprovctx.o
 .text          0x00000000        0x0 build/sam_e54_xpro_winc1500/production/_ext/810064134/wdrv_winc_nvm.o
 .data          0x00000000        0x0 build/sam_e54_xpro_winc1500/production/_ext/810064134/wdrv_winc_nvm.o
 .bss           0x00000000        0x0 build/sam_e54_xpro_winc1500/production/_ext/810064134/wdrv_winc_nvm.o
 .text._WDRV_WINC_NVMCRC7
                0x00000000       0x42 build/sam_e54_xpro_winc1500/production/_ext/810064134/wdrv_winc_nvm.o
 .text._WDRV_WINC_NVMFindSection
                0x00000000      0x100 build/sam_e54_xpro_winc1500/production/_ext/810064134/wdrv_winc_nvm.o
 .text.WDRV_WINC_NVMEraseSector
                0x00000000       0x96 build/sam_e54_xpro_winc1500/production/_ext/810064134/wdrv_winc_nvm.o
 .text.WDRV_WINC_NVMWrite
                0x00000000       0x96 build/sam_e54_xpro_winc1500/production/_ext/810064134/wdrv_winc_nvm.o
 .text.WDRV_WINC_NVMRead
                0x00000000       0x8e build/sam_e54_xpro_winc1500/production/_ext/810064134/wdrv_winc_nvm.o
 .rodata        0x00000000       0x20 build/sam_e54_xpro_winc1500/production/_ext/810064134/wdrv_winc_nvm.o
 .rodata.flashLocationIDMap
                0x00000000       0x18 build/sam_e54_xpro_winc1500/production/_ext/810064134/wdrv_winc_nvm.o
 .debug_info    0x00000000     0x3e8e build/sam_e54_xpro_winc1500/production/_ext/810064134/wdrv_winc_nvm.o
 .debug_abbrev  0x00000000      0x3f4 build/sam_e54_xpro_winc1500/production/_ext/810064134/wdrv_winc_nvm.o
 .debug_loc     0x00000000      0xbde build/sam_e54_xpro_winc1500/production/_ext/810064134/wdrv_winc_nvm.o
 .debug_aranges
                0x00000000       0x40 build/sam_e54_xpro_winc1500/production/_ext/810064134/wdrv_winc_nvm.o
 .debug_ranges  0x00000000       0x30 build/sam_e54_xpro_winc1500/production/_ext/810064134/wdrv_winc_nvm.o
 .debug_line    0x00000000      0x8f3 build/sam_e54_xpro_winc1500/production/_ext/810064134/wdrv_winc_nvm.o
 .debug_str     0x00000000      0x151 build/sam_e54_xpro_winc1500/production/_ext/810064134/wdrv_winc_nvm.o
 .comment       0x00000000       0x54 build/sam_e54_xpro_winc1500/production/_ext/810064134/wdrv_winc_nvm.o
 .debug_frame   0x00000000       0xd8 build/sam_e54_xpro_winc1500/production/_ext/810064134/wdrv_winc_nvm.o
 .ARM.attributes
                0x00000000       0x34 build/sam_e54_xpro_winc1500/production/_ext/810064134/wdrv_winc_nvm.o
 .text          0x00000000        0x0 build/sam_e54_xpro_winc1500/production/_ext/810064134/wdrv_winc_powersave.o
 .data          0x00000000        0x0 build/sam_e54_xpro_winc1500/production/_ext/810064134/wdrv_winc_powersave.o
 .bss           0x00000000        0x0 build/sam_e54_xpro_winc1500/production/_ext/810064134/wdrv_winc_powersave.o
 .text.WDRV_WINC_PowerSaveSetMode
                0x00000000       0x3a build/sam_e54_xpro_winc1500/production/_ext/810064134/wdrv_winc_powersave.o
 .text.WDRV_WINC_PowerSaveGetMode
                0x00000000       0x22 build/sam_e54_xpro_winc1500/production/_ext/810064134/wdrv_winc_powersave.o
 .text.WDRV_WINC_PowerSaveSetBeaconInterval
                0x00000000       0x70 build/sam_e54_xpro_winc1500/production/_ext/810064134/wdrv_winc_powersave.o
 .text.WDRV_WINC_PowerSaveManualSleep
                0x00000000       0x26 build/sam_e54_xpro_winc1500/production/_ext/810064134/wdrv_winc_powersave.o
 .debug_info    0x00000000     0x32e0 build/sam_e54_xpro_winc1500/production/_ext/810064134/wdrv_winc_powersave.o
 .debug_abbrev  0x00000000      0x2d1 build/sam_e54_xpro_winc1500/production/_ext/810064134/wdrv_winc_powersave.o
 .debug_loc     0x00000000      0x542 build/sam_e54_xpro_winc1500/production/_ext/810064134/wdrv_winc_powersave.o
 .debug_aranges
                0x00000000       0x38 build/sam_e54_xpro_winc1500/production/_ext/810064134/wdrv_winc_powersave.o
 .debug_ranges  0x00000000       0x28 build/sam_e54_xpro_winc1500/production/_ext/810064134/wdrv_winc_powersave.o
 .debug_line    0x00000000      0x63e build/sam_e54_xpro_winc1500/production/_ext/810064134/wdrv_winc_powersave.o
 .debug_str     0x00000000       0xb7 build/sam_e54_xpro_winc1500/production/_ext/810064134/wdrv_winc_powersave.o
 .comment       0x00000000       0x54 build/sam_e54_xpro_winc1500/production/_ext/810064134/wdrv_winc_powersave.o
 .debug_frame   0x00000000       0x88 build/sam_e54_xpro_winc1500/production/_ext/810064134/wdrv_winc_powersave.o
 .ARM.attributes
                0x00000000       0x34 build/sam_e54_xpro_winc1500/production/_ext/810064134/wdrv_winc_powersave.o
 .text          0x00000000        0x0 build/sam_e54_xpro_winc1500/production/_ext/810064134/wdrv_winc_socket.o
 .data          0x00000000        0x0 build/sam_e54_xpro_winc1500/production/_ext/810064134/wdrv_winc_socket.o
 .bss           0x00000000        0x0 build/sam_e54_xpro_winc1500/production/_ext/810064134/wdrv_winc_socket.o
 .text._WDRV_WINC_ICMPEchoResponseCallback
                0x00000000       0x28 build/sam_e54_xpro_winc1500/production/_ext/810064134/wdrv_winc_socket.o
 .text.WDRV_WINC_IPAddressSet
                0x00000000       0x3e build/sam_e54_xpro_winc1500/production/_ext/810064134/wdrv_winc_socket.o
 .text.WDRV_WINC_IPAddressGet
                0x00000000       0x2c build/sam_e54_xpro_winc1500/production/_ext/810064134/wdrv_winc_socket.o
 .text.WDRV_WINC_IPDNSServerAddressSet
                0x00000000       0x32 build/sam_e54_xpro_winc1500/production/_ext/810064134/wdrv_winc_socket.o
 .text.WDRV_WINC_IPDefaultGatewaySet
                0x00000000       0x32 build/sam_e54_xpro_winc1500/production/_ext/810064134/wdrv_winc_socket.o
 .text.WDRV_WINC_IPUseDHCPGet
                0x00000000       0x2a build/sam_e54_xpro_winc1500/production/_ext/810064134/wdrv_winc_socket.o
 .text.WDRV_WINC_IPDHCPServerConfigure
                0x00000000       0x34 build/sam_e54_xpro_winc1500/production/_ext/810064134/wdrv_winc_socket.o
 .text.WDRV_WINC_ICMPEchoRequest
                0x00000000       0x48 build/sam_e54_xpro_winc1500/production/_ext/810064134/wdrv_winc_socket.o
 .text.WDRV_WINC_OTAUpdateFromURL
                0x00000000       0x4e build/sam_e54_xpro_winc1500/production/_ext/810064134/wdrv_winc_socket.o
 .text.WDRV_WINC_OTAUpdateAbort
                0x00000000       0x36 build/sam_e54_xpro_winc1500/production/_ext/810064134/wdrv_winc_socket.o
 .text.WDRV_WINC_RollbackActiveFirmwareImage
                0x00000000       0x34 build/sam_e54_xpro_winc1500/production/_ext/810064134/wdrv_winc_socket.o
 .text.WDRV_WINC_SwitchActiveFirmwareImage
                0x00000000       0x34 build/sam_e54_xpro_winc1500/production/_ext/810064134/wdrv_winc_socket.o
 .text.WDRV_WINC_SocketRegisterResolverCallback
                0x00000000       0x16 build/sam_e54_xpro_winc1500/production/_ext/810064134/wdrv_winc_socket.o
 .text          0x00000000        0x0 build/sam_e54_xpro_winc1500/production/_ext/810064134/wdrv_winc_softap.o
 .data          0x00000000        0x0 build/sam_e54_xpro_winc1500/production/_ext/810064134/wdrv_winc_softap.o
 .bss           0x00000000        0x0 build/sam_e54_xpro_winc1500/production/_ext/810064134/wdrv_winc_softap.o
 .text.WDRV_WINC_APStart
                0x00000000      0x196 build/sam_e54_xpro_winc1500/production/_ext/810064134/wdrv_winc_softap.o
 .text.WDRV_WINC_APStop
                0x00000000       0x60 build/sam_e54_xpro_winc1500/production/_ext/810064134/wdrv_winc_softap.o
 .text.WDRV_WINC_APSetCustIE
                0x00000000       0x3c build/sam_e54_xpro_winc1500/production/_ext/810064134/wdrv_winc_softap.o
 .debug_info    0x00000000     0x3602 build/sam_e54_xpro_winc1500/production/_ext/810064134/wdrv_winc_softap.o
 .debug_abbrev  0x00000000      0x358 build/sam_e54_xpro_winc1500/production/_ext/810064134/wdrv_winc_softap.o
 .debug_loc     0x00000000      0x6ee build/sam_e54_xpro_winc1500/production/_ext/810064134/wdrv_winc_softap.o
 .debug_aranges
                0x00000000       0x30 build/sam_e54_xpro_winc1500/production/_ext/810064134/wdrv_winc_softap.o
 .debug_ranges  0x00000000       0x20 build/sam_e54_xpro_winc1500/production/_ext/810064134/wdrv_winc_softap.o
 .debug_line    0x00000000      0x80b build/sam_e54_xpro_winc1500/production/_ext/810064134/wdrv_winc_softap.o
 .debug_str     0x00000000      0x109 build/sam_e54_xpro_winc1500/production/_ext/810064134/wdrv_winc_softap.o
 .comment       0x00000000       0x54 build/sam_e54_xpro_winc1500/production/_ext/810064134/wdrv_winc_softap.o
 .debug_frame   0x00000000       0x78 build/sam_e54_xpro_winc1500/production/_ext/810064134/wdrv_winc_softap.o
 .ARM.attributes
                0x00000000       0x34 build/sam_e54_xpro_winc1500/production/_ext/810064134/wdrv_winc_softap.o
 .text          0x00000000        0x0 build/sam_e54_xpro_winc1500/production/_ext/810064134/wdrv_winc_ssl.o
 .data          0x00000000        0x0 build/sam_e54_xpro_winc1500/production/_ext/810064134/wdrv_winc_ssl.o
 .bss           0x00000000        0x0 build/sam_e54_xpro_winc1500/production/_ext/810064134/wdrv_winc_ssl.o
 .text.WDRV_WINC_SSLCTXDefault
                0x00000000        0xe build/sam_e54_xpro_winc1500/production/_ext/810064134/wdrv_winc_ssl.o
 .text.WDRV_WINC_SSLCTXCipherSuitesSet
                0x00000000       0x74 build/sam_e54_xpro_winc1500/production/_ext/810064134/wdrv_winc_ssl.o
 .text.WDRV_WINC_SSLCTXCipherSuitesGet
                0x00000000       0x50 build/sam_e54_xpro_winc1500/production/_ext/810064134/wdrv_winc_ssl.o
 .text.WDRV_WINC_SSLActiveCipherSuitesSet
                0x00000000       0x38 build/sam_e54_xpro_winc1500/production/_ext/810064134/wdrv_winc_ssl.o
 .text.WDRV_WINC_SSLECCReqCallbackSet
                0x00000000       0x24 build/sam_e54_xpro_winc1500/production/_ext/810064134/wdrv_winc_ssl.o
 .text.WDRV_WINC_SSLECCHandShakeRsp
                0x00000000      0x174 build/sam_e54_xpro_winc1500/production/_ext/810064134/wdrv_winc_ssl.o
 .text.WDRV_WINC_SSLRetrieveCert
                0x00000000       0x7e build/sam_e54_xpro_winc1500/production/_ext/810064134/wdrv_winc_ssl.o
 .text.WDRV_WINC_SSLRetrieveHash
                0x00000000       0x28 build/sam_e54_xpro_winc1500/production/_ext/810064134/wdrv_winc_ssl.o
 .text.WDRV_WINC_SSLStopRetrieveCert
                0x00000000       0x18 build/sam_e54_xpro_winc1500/production/_ext/810064134/wdrv_winc_ssl.o
 .rodata._cipherSuiteMap
                0x00000000       0x40 build/sam_e54_xpro_winc1500/production/_ext/810064134/wdrv_winc_ssl.o
 .debug_info    0x00000000     0x3d2d build/sam_e54_xpro_winc1500/production/_ext/810064134/wdrv_winc_ssl.o
 .debug_abbrev  0x00000000      0x3ba build/sam_e54_xpro_winc1500/production/_ext/810064134/wdrv_winc_ssl.o
 .debug_loc     0x00000000      0xf14 build/sam_e54_xpro_winc1500/production/_ext/810064134/wdrv_winc_ssl.o
 .debug_aranges
                0x00000000       0x60 build/sam_e54_xpro_winc1500/production/_ext/810064134/wdrv_winc_ssl.o
 .debug_ranges  0x00000000       0x50 build/sam_e54_xpro_winc1500/production/_ext/810064134/wdrv_winc_ssl.o
 .debug_line    0x00000000      0x8af build/sam_e54_xpro_winc1500/production/_ext/810064134/wdrv_winc_ssl.o
 .debug_str     0x00000000      0x128 build/sam_e54_xpro_winc1500/production/_ext/810064134/wdrv_winc_ssl.o
 .comment       0x00000000       0x54 build/sam_e54_xpro_winc1500/production/_ext/810064134/wdrv_winc_ssl.o
 .debug_frame   0x00000000      0x134 build/sam_e54_xpro_winc1500/production/_ext/810064134/wdrv_winc_ssl.o
 .ARM.attributes
                0x00000000       0x34 build/sam_e54_xpro_winc1500/production/_ext/810064134/wdrv_winc_ssl.o
 .text          0x00000000        0x0 build/sam_e54_xpro_winc1500/production/_ext/810064134/wdrv_winc_sta.o
 .data          0x00000000        0x0 build/sam_e54_xpro_winc1500/production/_ext/810064134/wdrv_winc_sta.o
 .bss           0x00000000        0x0 build/sam_e54_xpro_winc1500/production/_ext/810064134/wdrv_winc_sta.o
 .text.WDRV_WINC_BSSDisconnect
                0x00000000       0x44 build/sam_e54_xpro_winc1500/production/_ext/810064134/wdrv_winc_sta.o
 .text.WDRV_WINC_BSSRoamingConfigure
                0x00000000       0x44 build/sam_e54_xpro_winc1500/production/_ext/810064134/wdrv_winc_sta.o
 .text          0x00000000        0x0 build/sam_e54_xpro_winc1500/production/_ext/810064134/wdrv_winc_systime.o
 .data          0x00000000        0x0 build/sam_e54_xpro_winc1500/production/_ext/810064134/wdrv_winc_systime.o
 .bss           0x00000000        0x0 build/sam_e54_xpro_winc1500/production/_ext/810064134/wdrv_winc_systime.o
 .text.WDRV_WINC_UTCToLocalTime
                0x00000000       0x38 build/sam_e54_xpro_winc1500/production/_ext/810064134/wdrv_winc_systime.o
 .text.WDRV_WINC_SystemTimeSNTPClientEnable
                0x00000000       0x5a build/sam_e54_xpro_winc1500/production/_ext/810064134/wdrv_winc_systime.o
 .text.WDRV_WINC_SystemTimeSNTPClientDisable
                0x00000000       0x26 build/sam_e54_xpro_winc1500/production/_ext/810064134/wdrv_winc_systime.o
 .text.WDRV_WINC_SystemTimeSetCurrent
                0x00000000       0x2c build/sam_e54_xpro_winc1500/production/_ext/810064134/wdrv_winc_systime.o
 .text.WDRV_WINC_SystemTimeGetCurrent
                0x00000000       0x30 build/sam_e54_xpro_winc1500/production/_ext/810064134/wdrv_winc_systime.o
 .text          0x00000000        0x0 build/sam_e54_xpro_winc1500/production/_ext/810064134/wdrv_winc_wps.o
 .data          0x00000000        0x0 build/sam_e54_xpro_winc1500/production/_ext/810064134/wdrv_winc_wps.o
 .bss           0x00000000        0x0 build/sam_e54_xpro_winc1500/production/_ext/810064134/wdrv_winc_wps.o
 .text.WDRV_WINC_WPSEnrolleeDiscoveryStartPIN
                0x00000000      0x138 build/sam_e54_xpro_winc1500/production/_ext/810064134/wdrv_winc_wps.o
 .text.WDRV_WINC_WPSEnrolleeDiscoveryStartPBC
                0x00000000       0x34 build/sam_e54_xpro_winc1500/production/_ext/810064134/wdrv_winc_wps.o
 .text.WDRV_WINC_WPSEnrolleeDiscoveryStop
                0x00000000       0x24 build/sam_e54_xpro_winc1500/production/_ext/810064134/wdrv_winc_wps.o
 .rodata        0x00000000        0x8 build/sam_e54_xpro_winc1500/production/_ext/810064134/wdrv_winc_wps.o
 .debug_info    0x00000000     0x31f3 build/sam_e54_xpro_winc1500/production/_ext/810064134/wdrv_winc_wps.o
 .debug_abbrev  0x00000000      0x34b build/sam_e54_xpro_winc1500/production/_ext/810064134/wdrv_winc_wps.o
 .debug_loc     0x00000000      0x772 build/sam_e54_xpro_winc1500/production/_ext/810064134/wdrv_winc_wps.o
 .debug_aranges
                0x00000000       0x30 build/sam_e54_xpro_winc1500/production/_ext/810064134/wdrv_winc_wps.o
 .debug_ranges  0x00000000       0x20 build/sam_e54_xpro_winc1500/production/_ext/810064134/wdrv_winc_wps.o
 .debug_line    0x00000000      0x617 build/sam_e54_xpro_winc1500/production/_ext/810064134/wdrv_winc_wps.o
 .debug_str     0x00000000       0x9a build/sam_e54_xpro_winc1500/production/_ext/810064134/wdrv_winc_wps.o
 .comment       0x00000000       0x54 build/sam_e54_xpro_winc1500/production/_ext/810064134/wdrv_winc_wps.o
 .debug_frame   0x00000000       0x7c build/sam_e54_xpro_winc1500/production/_ext/810064134/wdrv_winc_wps.o
 .ARM.attributes
                0x00000000       0x34 build/sam_e54_xpro_winc1500/production/_ext/810064134/wdrv_winc_wps.o
 .text          0x00000000        0x0 build/sam_e54_xpro_winc1500/production/_ext/583946941/plib_clock.o
 .data          0x00000000        0x0 build/sam_e54_xpro_winc1500/production/_ext/583946941/plib_clock.o
 .bss           0x00000000        0x0 build/sam_e54_xpro_winc1500/production/_ext/583946941/plib_clock.o
 .text          0x00000000        0x0 build/sam_e54_xpro_winc1500/production/_ext/1643731573/plib_cmcc.o
 .data          0x00000000        0x0 build/sam_e54_xpro_winc1500/production/_ext/1643731573/plib_cmcc.o
 .bss           0x00000000        0x0 build/sam_e54_xpro_winc1500/production/_ext/1643731573/plib_cmcc.o
 .text.CMCC_Disable
                0x00000000       0x18 build/sam_e54_xpro_winc1500/production/_ext/1643731573/plib_cmcc.o
 .text.CMCC_EnableICache
                0x00000000       0x28 build/sam_e54_xpro_winc1500/production/_ext/1643731573/plib_cmcc.o
 .text.CMCC_DisableICache
                0x00000000       0x28 build/sam_e54_xpro_winc1500/production/_ext/1643731573/plib_cmcc.o
 .text.CMCC_EnableDCache
                0x00000000       0x28 build/sam_e54_xpro_winc1500/production/_ext/1643731573/plib_cmcc.o
 .text.CMCC_DisableDCache
                0x00000000       0x28 build/sam_e54_xpro_winc1500/production/_ext/1643731573/plib_cmcc.o
 .text.CMCC_InvalidateAll
                0x00000000       0x20 build/sam_e54_xpro_winc1500/production/_ext/1643731573/plib_cmcc.o
 .debug_info    0x00000000      0x5f2 build/sam_e54_xpro_winc1500/production/_ext/1643731573/plib_cmcc.o
 .debug_abbrev  0x00000000       0x9d build/sam_e54_xpro_winc1500/production/_ext/1643731573/plib_cmcc.o
 .debug_aranges
                0x00000000       0x48 build/sam_e54_xpro_winc1500/production/_ext/1643731573/plib_cmcc.o
 .debug_ranges  0x00000000       0x38 build/sam_e54_xpro_winc1500/production/_ext/1643731573/plib_cmcc.o
 .debug_line    0x00000000      0x293 build/sam_e54_xpro_winc1500/production/_ext/1643731573/plib_cmcc.o
 .debug_str     0x00000000        0x0 build/sam_e54_xpro_winc1500/production/_ext/1643731573/plib_cmcc.o
 .comment       0x00000000       0x54 build/sam_e54_xpro_winc1500/production/_ext/1643731573/plib_cmcc.o
 .debug_frame   0x00000000       0x70 build/sam_e54_xpro_winc1500/production/_ext/1643731573/plib_cmcc.o
 .ARM.attributes
                0x00000000       0x34 build/sam_e54_xpro_winc1500/production/_ext/1643731573/plib_cmcc.o
 .text          0x00000000        0x0 build/sam_e54_xpro_winc1500/production/_ext/1643761302/plib_dmac.o
 .data          0x00000000        0x0 build/sam_e54_xpro_winc1500/production/_ext/1643761302/plib_dmac.o
 .bss           0x00000000        0x0 build/sam_e54_xpro_winc1500/production/_ext/1643761302/plib_dmac.o
 .text.DMAC_ChannelIsBusy
                0x00000000       0x30 build/sam_e54_xpro_winc1500/production/_ext/1643761302/plib_dmac.o
 .text.DMAC_ChannelTransferStatusGet
                0x00000000       0x1e build/sam_e54_xpro_winc1500/production/_ext/1643761302/plib_dmac.o
 .text.DMAC_ChannelDisable
                0x00000000       0x2c build/sam_e54_xpro_winc1500/production/_ext/1643761302/plib_dmac.o
 .text.DMAC_ChannelGetTransferredCount
                0x00000000       0x1c build/sam_e54_xpro_winc1500/production/_ext/1643761302/plib_dmac.o
 .text.DMAC_ChannelSuspend
                0x00000000       0x1c build/sam_e54_xpro_winc1500/production/_ext/1643761302/plib_dmac.o
 .text.DMAC_ChannelResume
                0x00000000       0x1c build/sam_e54_xpro_winc1500/production/_ext/1643761302/plib_dmac.o
 .text.DMAC_CRCDisable
                0x00000000        0xc build/sam_e54_xpro_winc1500/production/_ext/1643761302/plib_dmac.o
 .text.DMAC_ChannelCRCSetup
                0x00000000       0x40 build/sam_e54_xpro_winc1500/production/_ext/1643761302/plib_dmac.o
 .text.DMAC_CRCRead
                0x00000000        0xc build/sam_e54_xpro_winc1500/production/_ext/1643761302/plib_dmac.o
 .text.DMAC_CRCCalculate
                0x00000000       0x98 build/sam_e54_xpro_winc1500/production/_ext/1643761302/plib_dmac.o
 .text          0x00000000        0x0 build/sam_e54_xpro_winc1500/production/_ext/2025184588/plib_eic.o
 .data          0x00000000        0x0 build/sam_e54_xpro_winc1500/production/_ext/2025184588/plib_eic.o
 .bss           0x00000000        0x0 build/sam_e54_xpro_winc1500/production/_ext/2025184588/plib_eic.o
 .text          0x00000000        0x0 build/sam_e54_xpro_winc1500/production/_ext/581797455/plib_evsys.o
 .data          0x00000000        0x0 build/sam_e54_xpro_winc1500/production/_ext/581797455/plib_evsys.o
 .bss           0x00000000        0x0 build/sam_e54_xpro_winc1500/production/_ext/581797455/plib_evsys.o
 .text          0x00000000        0x0 build/sam_e54_xpro_winc1500/production/_ext/1644068109/plib_nvic.o
 .data          0x00000000        0x0 build/sam_e54_xpro_winc1500/production/_ext/1644068109/plib_nvic.o
 .bss           0x00000000        0x0 build/sam_e54_xpro_winc1500/production/_ext/1644068109/plib_nvic.o
 .text.NVIC_INT_Enable
                0x00000000        0x8 build/sam_e54_xpro_winc1500/production/_ext/1644068109/plib_nvic.o
 .text          0x00000000        0x0 build/sam_e54_xpro_winc1500/production/_ext/1370199163/plib_nvmctrl.o
 .data          0x00000000        0x0 build/sam_e54_xpro_winc1500/production/_ext/1370199163/plib_nvmctrl.o
 .bss           0x00000000        0x0 build/sam_e54_xpro_winc1500/production/_ext/1370199163/plib_nvmctrl.o
 .text.NVMCTRL_Read
                0x00000000       0x10 build/sam_e54_xpro_winc1500/production/_ext/1370199163/plib_nvmctrl.o
 .text.NVMCTRL_SetWriteMode
                0x00000000       0x14 build/sam_e54_xpro_winc1500/production/_ext/1370199163/plib_nvmctrl.o
 .text.NVMCTRL_QuadWordWrite
                0x00000000       0x4c build/sam_e54_xpro_winc1500/production/_ext/1370199163/plib_nvmctrl.o
 .text.NVMCTRL_DoubleWordWrite
                0x00000000       0x40 build/sam_e54_xpro_winc1500/production/_ext/1370199163/plib_nvmctrl.o
 .text.NVMCTRL_PageBufferWrite
                0x00000000       0x2c build/sam_e54_xpro_winc1500/production/_ext/1370199163/plib_nvmctrl.o
 .text.NVMCTRL_PageBufferCommit
                0x00000000       0x28 build/sam_e54_xpro_winc1500/production/_ext/1370199163/plib_nvmctrl.o
 .text.NVMCTRL_PageWrite
                0x00000000       0x40 build/sam_e54_xpro_winc1500/production/_ext/1370199163/plib_nvmctrl.o
 .text.NVMCTRL_BlockErase
                0x00000000       0x1c build/sam_e54_xpro_winc1500/production/_ext/1370199163/plib_nvmctrl.o
 .text.NVMCTRL_ErrorGet
                0x00000000       0x20 build/sam_e54_xpro_winc1500/production/_ext/1370199163/plib_nvmctrl.o
 .text.NVMCTRL_StatusGet
                0x00000000        0xc build/sam_e54_xpro_winc1500/production/_ext/1370199163/plib_nvmctrl.o
 .text.NVMCTRL_IsBusy
                0x00000000       0x14 build/sam_e54_xpro_winc1500/production/_ext/1370199163/plib_nvmctrl.o
 .text.NVMCTRL_RegionLock
                0x00000000       0x10 build/sam_e54_xpro_winc1500/production/_ext/1370199163/plib_nvmctrl.o
 .text.NVMCTRL_RegionUnlock
                0x00000000       0x10 build/sam_e54_xpro_winc1500/production/_ext/1370199163/plib_nvmctrl.o
 .text.NVMCTRL_RegionLockStatusGet
                0x00000000        0xc build/sam_e54_xpro_winc1500/production/_ext/1370199163/plib_nvmctrl.o
 .text.NVMCTRL_SmartEEPROM_IsBusy
                0x00000000       0x10 build/sam_e54_xpro_winc1500/production/_ext/1370199163/plib_nvmctrl.o
 .text.NVMCTRL_SmartEEPROMStatusGet
                0x00000000        0xc build/sam_e54_xpro_winc1500/production/_ext/1370199163/plib_nvmctrl.o
 .text.NVMCTRL_SmartEEPROM_IsActiveSectorFull
                0x00000000       0x10 build/sam_e54_xpro_winc1500/production/_ext/1370199163/plib_nvmctrl.o
 .text.NVMCTRL_BankSwap
                0x00000000       0x10 build/sam_e54_xpro_winc1500/production/_ext/1370199163/plib_nvmctrl.o
 .text.NVMCTRL_SmartEEPROMSectorReallocate
                0x00000000       0x10 build/sam_e54_xpro_winc1500/production/_ext/1370199163/plib_nvmctrl.o
 .text.NVMCTRL_SmartEEPROMFlushPageBuffer
                0x00000000       0x18 build/sam_e54_xpro_winc1500/production/_ext/1370199163/plib_nvmctrl.o
 .bss.nvm_error
                0x00000000        0x2 build/sam_e54_xpro_winc1500/production/_ext/1370199163/plib_nvmctrl.o
 .text          0x00000000        0x0 build/sam_e54_xpro_winc1500/production/_ext/1644121260/plib_port.o
 .data          0x00000000        0x0 build/sam_e54_xpro_winc1500/production/_ext/1644121260/plib_port.o
 .bss           0x00000000        0x0 build/sam_e54_xpro_winc1500/production/_ext/1644121260/plib_port.o
 .text.PORT_GroupRead
                0x00000000        0x4 build/sam_e54_xpro_winc1500/production/_ext/1644121260/plib_port.o
 .text.PORT_GroupWrite
                0x00000000        0xc build/sam_e54_xpro_winc1500/production/_ext/1644121260/plib_port.o
 .text.PORT_GroupLatchRead
                0x00000000        0x4 build/sam_e54_xpro_winc1500/production/_ext/1644121260/plib_port.o
 .text.PORT_GroupToggle
                0x00000000        0x4 build/sam_e54_xpro_winc1500/production/_ext/1644121260/plib_port.o
 .text.PORT_GroupInputEnable
                0x00000000        0x4 build/sam_e54_xpro_winc1500/production/_ext/1644121260/plib_port.o
 .text.PORT_GroupOutputEnable
                0x00000000        0x4 build/sam_e54_xpro_winc1500/production/_ext/1644121260/plib_port.o
 .text.PORT_PinPeripheralFunctionConfig
                0x00000000       0x4a build/sam_e54_xpro_winc1500/production/_ext/1644121260/plib_port.o
 .text.PORT_PinGPIOConfig
                0x00000000       0x20 build/sam_e54_xpro_winc1500/production/_ext/1644121260/plib_port.o
 .text          0x00000000        0x0 build/sam_e54_xpro_winc1500/production/_ext/1854354360/plib_sercom4_spi_master.o
 .data          0x00000000        0x0 build/sam_e54_xpro_winc1500/production/_ext/1854354360/plib_sercom4_spi_master.o
 .bss           0x00000000        0x0 build/sam_e54_xpro_winc1500/production/_ext/1854354360/plib_sercom4_spi_master.o
 .text.SERCOM4_SPI_IsBusy
                0x00000000       0x2c build/sam_e54_xpro_winc1500/production/_ext/1854354360/plib_sercom4_spi_master.o
 .text.SERCOM4_SPI_Write
                0x00000000        0xc build/sam_e54_xpro_winc1500/production/_ext/1854354360/plib_sercom4_spi_master.o
 .text.SERCOM4_SPI_Read
                0x00000000       0x10 build/sam_e54_xpro_winc1500/production/_ext/1854354360/plib_sercom4_spi_master.o
 .text          0x00000000        0x0 build/sam_e54_xpro_winc1500/production/_ext/923560386/plib_sercom2_usart.o
 .data          0x00000000        0x0 build/sam_e54_xpro_winc1500/production/_ext/923560386/plib_sercom2_usart.o
 .bss           0x00000000        0x0 build/sam_e54_xpro_winc1500/production/_ext/923560386/plib_sercom2_usart.o
 .text.SERCOM2_USART_FrequencyGet
                0x00000000        0x8 build/sam_e54_xpro_winc1500/production/_ext/923560386/plib_sercom2_usart.o
 .text.SERCOM2_USART_SerialSetup
                0x00000000      0x158 build/sam_e54_xpro_winc1500/production/_ext/923560386/plib_sercom2_usart.o
 .text.SERCOM2_USART_ErrorGet
                0x00000000       0x10 build/sam_e54_xpro_winc1500/production/_ext/923560386/plib_sercom2_usart.o
 .text.SERCOM2_USART_ReadBufferSizeGet
                0x00000000        0xc build/sam_e54_xpro_winc1500/production/_ext/923560386/plib_sercom2_usart.o
 .text.SERCOM2_USART_ReadNotificationEnable
                0x00000000       0x18 build/sam_e54_xpro_winc1500/production/_ext/923560386/plib_sercom2_usart.o
 .text.SERCOM2_USART_ReadThresholdSet
                0x00000000        0xc build/sam_e54_xpro_winc1500/production/_ext/923560386/plib_sercom2_usart.o
 .text.SERCOM2_USART_ReadCallbackRegister
                0x00000000        0xc build/sam_e54_xpro_winc1500/production/_ext/923560386/plib_sercom2_usart.o
 .text.SERCOM2_USART_WriteBufferSizeGet
                0x00000000        0xc build/sam_e54_xpro_winc1500/production/_ext/923560386/plib_sercom2_usart.o
 .text.SERCOM2_USART_WriteNotificationEnable
                0x00000000       0x10 build/sam_e54_xpro_winc1500/production/_ext/923560386/plib_sercom2_usart.o
 .text.SERCOM2_USART_WriteThresholdSet
                0x00000000        0xc build/sam_e54_xpro_winc1500/production/_ext/923560386/plib_sercom2_usart.o
 .text.SERCOM2_USART_WriteCallbackRegister
                0x00000000        0xc build/sam_e54_xpro_winc1500/production/_ext/923560386/plib_sercom2_usart.o
 .text          0x00000000        0x0 build/sam_e54_xpro_winc1500/production/_ext/1320145242/plib_tc3.o
 .data          0x00000000        0x0 build/sam_e54_xpro_winc1500/production/_ext/1320145242/plib_tc3.o
 .bss           0x00000000        0x0 build/sam_e54_xpro_winc1500/production/_ext/1320145242/plib_tc3.o
 .text.TC3_TimerCommandSet
                0x00000000       0x18 build/sam_e54_xpro_winc1500/production/_ext/1320145242/plib_tc3.o
 .text.TC3_Timer16bitCounterSet
                0x00000000       0x14 build/sam_e54_xpro_winc1500/production/_ext/1320145242/plib_tc3.o
 .text.TC3_Timer16bitPeriodGet
                0x00000000        0xc build/sam_e54_xpro_winc1500/production/_ext/1320145242/plib_tc3.o
 .text          0x00000000        0x0 build/sam_e54_xpro_winc1500/production/_ext/1906958335/xc32_monitor.o
 .data          0x00000000        0x0 build/sam_e54_xpro_winc1500/production/_ext/1906958335/xc32_monitor.o
 .bss           0x00000000        0x0 build/sam_e54_xpro_winc1500/production/_ext/1906958335/xc32_monitor.o
 .text._mon_getc
                0x00000000        0x4 build/sam_e54_xpro_winc1500/production/_ext/1906958335/xc32_monitor.o
 .text._mon_putc
                0x00000000        0x2 build/sam_e54_xpro_winc1500/production/_ext/1906958335/xc32_monitor.o
 .debug_info    0x00000000      0x2fe build/sam_e54_xpro_winc1500/production/_ext/1906958335/xc32_monitor.o
 .debug_abbrev  0x00000000       0x80 build/sam_e54_xpro_winc1500/production/_ext/1906958335/xc32_monitor.o
 .debug_loc     0x00000000       0x25 build/sam_e54_xpro_winc1500/production/_ext/1906958335/xc32_monitor.o
 .debug_aranges
                0x00000000       0x28 build/sam_e54_xpro_winc1500/production/_ext/1906958335/xc32_monitor.o
 .debug_ranges  0x00000000       0x18 build/sam_e54_xpro_winc1500/production/_ext/1906958335/xc32_monitor.o
 .debug_line    0x00000000       0x8b build/sam_e54_xpro_winc1500/production/_ext/1906958335/xc32_monitor.o
 .debug_str     0x00000000        0x0 build/sam_e54_xpro_winc1500/production/_ext/1906958335/xc32_monitor.o
 .comment       0x00000000       0x54 build/sam_e54_xpro_winc1500/production/_ext/1906958335/xc32_monitor.o
 .debug_frame   0x00000000       0x30 build/sam_e54_xpro_winc1500/production/_ext/1906958335/xc32_monitor.o
 .ARM.attributes
                0x00000000       0x34 build/sam_e54_xpro_winc1500/production/_ext/1906958335/xc32_monitor.o
 .text          0x00000000        0x0 build/sam_e54_xpro_winc1500/production/_ext/1221796054/sys_cache.o
 .data          0x00000000        0x0 build/sam_e54_xpro_winc1500/production/_ext/1221796054/sys_cache.o
 .bss           0x00000000        0x0 build/sam_e54_xpro_winc1500/production/_ext/1221796054/sys_cache.o
 .text.SYS_CACHE_EnableCaches
                0x00000000        0x2 build/sam_e54_xpro_winc1500/production/_ext/1221796054/sys_cache.o
 .text.SYS_CACHE_DisableCaches
                0x00000000        0x2 build/sam_e54_xpro_winc1500/production/_ext/1221796054/sys_cache.o
 .text.SYS_CACHE_EnableICache
                0x00000000        0x2 build/sam_e54_xpro_winc1500/production/_ext/1221796054/sys_cache.o
 .text.SYS_CACHE_DisableICache
                0x00000000        0x2 build/sam_e54_xpro_winc1500/production/_ext/1221796054/sys_cache.o
 .text.SYS_CACHE_InvalidateICache
                0x00000000        0x2 build/sam_e54_xpro_winc1500/production/_ext/1221796054/sys_cache.o
 .text.SYS_CACHE_EnableDCache
                0x00000000        0x2 build/sam_e54_xpro_winc1500/production/_ext/1221796054/sys_cache.o
 .text.SYS_CACHE_DisableDCache
                0x00000000        0x2 build/sam_e54_xpro_winc1500/production/_ext/1221796054/sys_cache.o
 .text.SYS_CACHE_InvalidateDCache
                0x00000000        0x2 build/sam_e54_xpro_winc1500/production/_ext/1221796054/sys_cache.o
 .text.SYS_CACHE_CleanDCache
                0x00000000        0x2 build/sam_e54_xpro_winc1500/production/_ext/1221796054/sys_cache.o
 .text.SYS_CACHE_CleanInvalidateDCache
                0x00000000        0x2 build/sam_e54_xpro_winc1500/production/_ext/1221796054/sys_cache.o
 .text.SYS_CACHE_InvalidateDCache_by_Addr
                0x00000000        0x2 build/sam_e54_xpro_winc1500/production/_ext/1221796054/sys_cache.o
 .text.SYS_CACHE_CleanDCache_by_Addr
                0x00000000        0x2 build/sam_e54_xpro_winc1500/production/_ext/1221796054/sys_cache.o
 .text.SYS_CACHE_CleanInvalidateDCache_by_Addr
                0x00000000        0x2 build/sam_e54_xpro_winc1500/production/_ext/1221796054/sys_cache.o
 .debug_info    0x00000000      0x663 build/sam_e54_xpro_winc1500/production/_ext/1221796054/sys_cache.o
 .debug_abbrev  0x00000000       0x9a build/sam_e54_xpro_winc1500/production/_ext/1221796054/sys_cache.o
 .debug_aranges
                0x00000000       0x80 build/sam_e54_xpro_winc1500/production/_ext/1221796054/sys_cache.o
 .debug_ranges  0x00000000       0x70 build/sam_e54_xpro_winc1500/production/_ext/1221796054/sys_cache.o
 .debug_line    0x00000000      0x21d build/sam_e54_xpro_winc1500/production/_ext/1221796054/sys_cache.o
 .debug_str     0x00000000        0x0 build/sam_e54_xpro_winc1500/production/_ext/1221796054/sys_cache.o
 .comment       0x00000000       0x54 build/sam_e54_xpro_winc1500/production/_ext/1221796054/sys_cache.o
 .debug_frame   0x00000000       0xe0 build/sam_e54_xpro_winc1500/production/_ext/1221796054/sys_cache.o
 .ARM.attributes
                0x00000000       0x34 build/sam_e54_xpro_winc1500/production/_ext/1221796054/sys_cache.o
 .text          0x00000000        0x0 build/sam_e54_xpro_winc1500/production/_ext/501133612/sys_console.o
 .data          0x00000000        0x0 build/sam_e54_xpro_winc1500/production/_ext/501133612/sys_console.o
 .bss           0x00000000        0x0 build/sam_e54_xpro_winc1500/production/_ext/501133612/sys_console.o
 .text.SYS_CONSOLE_Status
                0x00000000       0x50 build/sam_e54_xpro_winc1500/production/_ext/501133612/sys_console.o
 .text.SYS_CONSOLE_DeviceGet
                0x00000000       0x18 build/sam_e54_xpro_winc1500/production/_ext/501133612/sys_console.o
 .text.SYS_CONSOLE_Tasks
                0x00000000       0x28 build/sam_e54_xpro_winc1500/production/_ext/501133612/sys_console.o
 .text.SYS_CONSOLE_Read
                0x00000000       0x34 build/sam_e54_xpro_winc1500/production/_ext/501133612/sys_console.o
 .text.SYS_CONSOLE_ReadFreeBufferCountGet
                0x00000000       0x34 build/sam_e54_xpro_winc1500/production/_ext/501133612/sys_console.o
 .text.SYS_CONSOLE_ReadCountGet
                0x00000000       0x34 build/sam_e54_xpro_winc1500/production/_ext/501133612/sys_console.o
 .text.SYS_CONSOLE_Write
                0x00000000       0x34 build/sam_e54_xpro_winc1500/production/_ext/501133612/sys_console.o
 .text.SYS_CONSOLE_WriteFreeBufferCountGet
                0x00000000       0x34 build/sam_e54_xpro_winc1500/production/_ext/501133612/sys_console.o
 .text.SYS_CONSOLE_WriteCountGet
                0x00000000       0x34 build/sam_e54_xpro_winc1500/production/_ext/501133612/sys_console.o
 .text.SYS_CONSOLE_Flush
                0x00000000       0x2c build/sam_e54_xpro_winc1500/production/_ext/501133612/sys_console.o
 .text          0x00000000        0x0 build/sam_e54_xpro_winc1500/production/_ext/501133612/sys_console_uart.o
 .data          0x00000000        0x0 build/sam_e54_xpro_winc1500/production/_ext/501133612/sys_console_uart.o
 .bss           0x00000000        0x0 build/sam_e54_xpro_winc1500/production/_ext/501133612/sys_console_uart.o
 .text          0x00000000        0x0 build/sam_e54_xpro_winc1500/production/_ext/1623561264/sys_debug.o
 .data          0x00000000        0x0 build/sam_e54_xpro_winc1500/production/_ext/1623561264/sys_debug.o
 .bss           0x00000000        0x0 build/sam_e54_xpro_winc1500/production/_ext/1623561264/sys_debug.o
 .text.SYS_DEBUG_Status
                0x00000000        0xc build/sam_e54_xpro_winc1500/production/_ext/1623561264/sys_debug.o
 .text.SYS_DEBUG_ErrorLevelSet
                0x00000000        0xc build/sam_e54_xpro_winc1500/production/_ext/1623561264/sys_debug.o
 .text.SYS_DEBUG_Redirect
                0x00000000       0x14 build/sam_e54_xpro_winc1500/production/_ext/1623561264/sys_debug.o
 .text          0x00000000        0x0 build/sam_e54_xpro_winc1500/production/_ext/895123808/sys_dma.o
 .data          0x00000000        0x0 build/sam_e54_xpro_winc1500/production/_ext/895123808/sys_dma.o
 .bss           0x00000000        0x0 build/sam_e54_xpro_winc1500/production/_ext/895123808/sys_dma.o
 .text          0x00000000        0x0 build/sam_e54_xpro_winc1500/production/_ext/203683476/sys_int.o
 .data          0x00000000        0x0 build/sam_e54_xpro_winc1500/production/_ext/203683476/sys_int.o
 .bss           0x00000000        0x0 build/sam_e54_xpro_winc1500/production/_ext/203683476/sys_int.o
 .text.SYS_INT_Enable
                0x00000000        0x8 build/sam_e54_xpro_winc1500/production/_ext/203683476/sys_int.o
 .text          0x00000000        0x0 build/sam_e54_xpro_winc1500/production/_ext/323285254/sys_time.o
 .data          0x00000000        0x0 build/sam_e54_xpro_winc1500/production/_ext/323285254/sys_time.o
 .bss           0x00000000        0x0 build/sam_e54_xpro_winc1500/production/_ext/323285254/sys_time.o
 .text.SYS_TIME_Deinitialize
                0x00000000       0x30 build/sam_e54_xpro_winc1500/production/_ext/323285254/sys_time.o
 .text.SYS_TIME_Status
                0x00000000       0x14 build/sam_e54_xpro_winc1500/production/_ext/323285254/sys_time.o
 .text.SYS_TIME_FrequencyGet
                0x00000000        0xc build/sam_e54_xpro_winc1500/production/_ext/323285254/sys_time.o
 .text.SYS_TIME_Counter64Get
                0x00000000       0x3c build/sam_e54_xpro_winc1500/production/_ext/323285254/sys_time.o
 .text.SYS_TIME_CounterGet
                0x00000000        0x8 build/sam_e54_xpro_winc1500/production/_ext/323285254/sys_time.o
 .text.SYS_TIME_CounterSet
                0x00000000       0x20 build/sam_e54_xpro_winc1500/production/_ext/323285254/sys_time.o
 .text.SYS_TIME_CountToUS
                0x00000000       0x44 build/sam_e54_xpro_winc1500/production/_ext/323285254/sys_time.o
 .text.SYS_TIME_CountToMS
                0x00000000       0x3c build/sam_e54_xpro_winc1500/production/_ext/323285254/sys_time.o
 .text.SYS_TIME_USToCount
                0x00000000       0x1c build/sam_e54_xpro_winc1500/production/_ext/323285254/sys_time.o
 .text.SYS_TIME_MSToCount
                0x00000000       0x1c build/sam_e54_xpro_winc1500/production/_ext/323285254/sys_time.o
 .text.SYS_TIME_TimerCreate
                0x00000000       0x1c build/sam_e54_xpro_winc1500/production/_ext/323285254/sys_time.o
 .text.SYS_TIME_TimerReload
                0x00000000       0x88 build/sam_e54_xpro_winc1500/production/_ext/323285254/sys_time.o
 .text.SYS_TIME_TimerStop
                0x00000000       0x3c build/sam_e54_xpro_winc1500/production/_ext/323285254/sys_time.o
 .text.SYS_TIME_TimerCounterGet
                0x00000000       0x88 build/sam_e54_xpro_winc1500/production/_ext/323285254/sys_time.o
 .text.SYS_TIME_DelayUS
                0x00000000       0x50 build/sam_e54_xpro_winc1500/production/_ext/323285254/sys_time.o
 .text.SYS_TIME_CallbackRegisterUS
                0x00000000       0x58 build/sam_e54_xpro_winc1500/production/_ext/323285254/sys_time.o
 .text.SYS_TIME_CallbackRegisterMS
                0x00000000       0x54 build/sam_e54_xpro_winc1500/production/_ext/323285254/sys_time.o
 .text          0x00000000        0x0 build/sam_e54_xpro_winc1500/production/_ext/231993977/initialization.o
 .data          0x00000000        0x0 build/sam_e54_xpro_winc1500/production/_ext/231993977/initialization.o
 .bss           0x00000000        0x0 build/sam_e54_xpro_winc1500/production/_ext/231993977/initialization.o
 .text          0x00000000        0x0 build/sam_e54_xpro_winc1500/production/_ext/231993977/interrupts.o
 .data          0x00000000        0x0 build/sam_e54_xpro_winc1500/production/_ext/231993977/interrupts.o
 .bss           0x00000000        0x0 build/sam_e54_xpro_winc1500/production/_ext/231993977/interrupts.o
 .text          0x00000000        0x0 build/sam_e54_xpro_winc1500/production/_ext/231993977/exceptions.o
 .data          0x00000000        0x0 build/sam_e54_xpro_winc1500/production/_ext/231993977/exceptions.o
 .bss           0x00000000        0x0 build/sam_e54_xpro_winc1500/production/_ext/231993977/exceptions.o
 .text          0x00000000        0x0 build/sam_e54_xpro_winc1500/production/_ext/231993977/startup_xc32.o
 .data          0x00000000        0x0 build/sam_e54_xpro_winc1500/production/_ext/231993977/startup_xc32.o
 .bss           0x00000000        0x0 build/sam_e54_xpro_winc1500/production/_ext/231993977/startup_xc32.o
 .text          0x00000000        0x0 build/sam_e54_xpro_winc1500/production/_ext/231993977/libc_syscalls.o
 .data          0x00000000        0x0 build/sam_e54_xpro_winc1500/production/_ext/231993977/libc_syscalls.o
 .bss           0x00000000        0x0 build/sam_e54_xpro_winc1500/production/_ext/231993977/libc_syscalls.o
 .text._exit    0x00000000        0x2 build/sam_e54_xpro_winc1500/production/_ext/231993977/libc_syscalls.o
 .debug_info    0x00000000      0xf91 build/sam_e54_xpro_winc1500/production/_ext/231993977/libc_syscalls.o
 .debug_abbrev  0x00000000      0x1d3 build/sam_e54_xpro_winc1500/production/_ext/231993977/libc_syscalls.o
 .debug_loc     0x00000000       0x15 build/sam_e54_xpro_winc1500/production/_ext/231993977/libc_syscalls.o
 .debug_aranges
                0x00000000       0x20 build/sam_e54_xpro_winc1500/production/_ext/231993977/libc_syscalls.o
 .debug_ranges  0x00000000       0x10 build/sam_e54_xpro_winc1500/production/_ext/231993977/libc_syscalls.o
 .debug_line    0x00000000      0x1e3 build/sam_e54_xpro_winc1500/production/_ext/231993977/libc_syscalls.o
 .debug_str     0x00000000        0xe build/sam_e54_xpro_winc1500/production/_ext/231993977/libc_syscalls.o
 .comment       0x00000000       0x54 build/sam_e54_xpro_winc1500/production/_ext/231993977/libc_syscalls.o
 .debug_frame   0x00000000       0x20 build/sam_e54_xpro_winc1500/production/_ext/231993977/libc_syscalls.o
 .ARM.attributes
                0x00000000       0x34 build/sam_e54_xpro_winc1500/production/_ext/231993977/libc_syscalls.o
 .text          0x00000000        0x0 build/sam_e54_xpro_winc1500/production/_ext/231993977/tasks.o
 .data          0x00000000        0x0 build/sam_e54_xpro_winc1500/production/_ext/231993977/tasks.o
 .bss           0x00000000        0x0 build/sam_e54_xpro_winc1500/production/_ext/231993977/tasks.o
 .text          0x00000000        0x0 build/sam_e54_xpro_winc1500/production/_ext/1360937237/example.o
 .data          0x00000000        0x0 build/sam_e54_xpro_winc1500/production/_ext/1360937237/example.o
 .bss           0x00000000        0x0 build/sam_e54_xpro_winc1500/production/_ext/1360937237/example.o
 .text          0x00000000        0x0 build/sam_e54_xpro_winc1500/production/_ext/1360937237/main.o
 .data          0x00000000        0x0 build/sam_e54_xpro_winc1500/production/_ext/1360937237/main.o
 .bss           0x00000000        0x0 build/sam_e54_xpro_winc1500/production/_ext/1360937237/main.o
 .text          0x00000000        0x0 build/sam_e54_xpro_winc1500/production/_ext/1360937237/app.o
 .data          0x00000000        0x0 build/sam_e54_xpro_winc1500/production/_ext/1360937237/app.o
 .bss           0x00000000        0x0 build/sam_e54_xpro_winc1500/production/_ext/1360937237/app.o
 .text          0x00000000        0x0 c:/program files/microchip/xc32/v3.01/bin/bin/../../lib/gcc/pic32c/8.3.1/../../../../pic32c/lib/thumb/v7e-m+fp/hard\libpic32c.a(data_init.o)
 .data          0x00000000        0x0 c:/program files/microchip/xc32/v3.01/bin/bin/../../lib/gcc/pic32c/8.3.1/../../../../pic32c/lib/thumb/v7e-m+fp/hard\libpic32c.a(data_init.o)
 .xc_stack_usage
                0x00000000       0x2a c:/program files/microchip/xc32/v3.01/bin/bin/../../lib/gcc/pic32c/8.3.1/../../../../pic32c/lib/thumb/v7e-m+fp/hard\libpic32c.a(data_init.o)
 .xc_stack_usage.hdr
                0x00000000        0xe c:/program files/microchip/xc32/v3.01/bin/bin/../../lib/gcc/pic32c/8.3.1/../../../../pic32c/lib/thumb/v7e-m+fp/hard\libpic32c.a(data_init.o)
 .data          0x00000000        0x0 c:/program files/microchip/xc32/v3.01/bin/bin/../../lib/gcc/pic32c/8.3.1/thumb/v7e-m+fp/hard\libgcc.a(_aeabi_uldivmod.o)
 .bss           0x00000000        0x0 c:/program files/microchip/xc32/v3.01/bin/bin/../../lib/gcc/pic32c/8.3.1/thumb/v7e-m+fp/hard\libgcc.a(_aeabi_uldivmod.o)
 .xc_stack_usage.hdr
                0x00000000        0xe c:/program files/microchip/xc32/v3.01/bin/bin/../../lib/gcc/pic32c/8.3.1/thumb/v7e-m+fp/hard\libgcc.a(_aeabi_uldivmod.o)
 .xc_stack_usage
                0x00000000       0x1e c:/program files/microchip/xc32/v3.01/bin/bin/../../lib/gcc/pic32c/8.3.1/thumb/v7e-m+fp/hard\libgcc.a(_aeabi_uldivmod.o)
 .data          0x00000000        0x0 c:/program files/microchip/xc32/v3.01/bin/bin/../../lib/gcc/pic32c/8.3.1/thumb/v7e-m+fp/hard\libgcc.a(_udivmoddi4.o)
 .bss           0x00000000        0x0 c:/program files/microchip/xc32/v3.01/bin/bin/../../lib/gcc/pic32c/8.3.1/thumb/v7e-m+fp/hard\libgcc.a(_udivmoddi4.o)
 .xc_stack_usage
                0x00000000       0x1a c:/program files/microchip/xc32/v3.01/bin/bin/../../lib/gcc/pic32c/8.3.1/thumb/v7e-m+fp/hard\libgcc.a(_udivmoddi4.o)
 .ARM.extab     0x00000000        0x0 c:/program files/microchip/xc32/v3.01/bin/bin/../../lib/gcc/pic32c/8.3.1/thumb/v7e-m+fp/hard\libgcc.a(_udivmoddi4.o)
 .xc_stack_usage.hdr
                0x00000000        0xe c:/program files/microchip/xc32/v3.01/bin/bin/../../lib/gcc/pic32c/8.3.1/thumb/v7e-m+fp/hard\libgcc.a(_udivmoddi4.o)
 .data          0x00000000        0x0 c:/program files/microchip/xc32/v3.01/bin/bin/../../lib/gcc/pic32c/8.3.1/thumb/v7e-m+fp/hard\libgcc.a(_dvmd_tls.o)
 .bss           0x00000000        0x0 c:/program files/microchip/xc32/v3.01/bin/bin/../../lib/gcc/pic32c/8.3.1/thumb/v7e-m+fp/hard\libgcc.a(_dvmd_tls.o)
 .xc_stack_usage.hdr
                0x00000000        0xe c:/program files/microchip/xc32/v3.01/bin/bin/../../lib/gcc/pic32c/8.3.1/thumb/v7e-m+fp/hard\libgcc.a(_dvmd_tls.o)
 .xc_stack_usage
                0x00000000       0x36 c:/program files/microchip/xc32/v3.01/bin/bin/../../lib/gcc/pic32c/8.3.1/thumb/v7e-m+fp/hard\libgcc.a(_dvmd_tls.o)
 .text          0x00000000        0x0 c:/program files/microchip/xc32/v3.01/bin/bin/../../lib/gcc/pic32c/8.3.1/../../../../pic32c/lib/thumb/v7e-m+fp/hard\libc_nano.a(lib_a-gmtime.o)
 .data          0x00000000        0x0 c:/program files/microchip/xc32/v3.01/bin/bin/../../lib/gcc/pic32c/8.3.1/../../../../pic32c/lib/thumb/v7e-m+fp/hard\libc_nano.a(lib_a-gmtime.o)
 .bss           0x00000000        0x0 c:/program files/microchip/xc32/v3.01/bin/bin/../../lib/gcc/pic32c/8.3.1/../../../../pic32c/lib/thumb/v7e-m+fp/hard\libc_nano.a(lib_a-gmtime.o)
 .xc_stack_usage
                0x00000000       0x14 c:/program files/microchip/xc32/v3.01/bin/bin/../../lib/gcc/pic32c/8.3.1/../../../../pic32c/lib/thumb/v7e-m+fp/hard\libc_nano.a(lib_a-gmtime.o)
 .text.gmtime   0x00000000       0x24 c:/program files/microchip/xc32/v3.01/bin/bin/../../lib/gcc/pic32c/8.3.1/../../../../pic32c/lib/thumb/v7e-m+fp/hard\libc_nano.a(lib_a-gmtime.o)
 .xc_stack_usage.hdr
                0x00000000        0xe c:/program files/microchip/xc32/v3.01/bin/bin/../../lib/gcc/pic32c/8.3.1/../../../../pic32c/lib/thumb/v7e-m+fp/hard\libc_nano.a(lib_a-gmtime.o)
 .comment       0x00000000       0x54 c:/program files/microchip/xc32/v3.01/bin/bin/../../lib/gcc/pic32c/8.3.1/../../../../pic32c/lib/thumb/v7e-m+fp/hard\libc_nano.a(lib_a-gmtime.o)
 .ARM.attributes
                0x00000000       0x34 c:/program files/microchip/xc32/v3.01/bin/bin/../../lib/gcc/pic32c/8.3.1/../../../../pic32c/lib/thumb/v7e-m+fp/hard\libc_nano.a(lib_a-gmtime.o)
 .text          0x00000000        0x0 c:/program files/microchip/xc32/v3.01/bin/bin/../../lib/gcc/pic32c/8.3.1/../../../../pic32c/lib/thumb/v7e-m+fp/hard\libc_nano.a(lib_a-gmtime_r.o)
 .data          0x00000000        0x0 c:/program files/microchip/xc32/v3.01/bin/bin/../../lib/gcc/pic32c/8.3.1/../../../../pic32c/lib/thumb/v7e-m+fp/hard\libc_nano.a(lib_a-gmtime_r.o)
 .bss           0x00000000        0x0 c:/program files/microchip/xc32/v3.01/bin/bin/../../lib/gcc/pic32c/8.3.1/../../../../pic32c/lib/thumb/v7e-m+fp/hard\libc_nano.a(lib_a-gmtime_r.o)
 .xc_stack_usage
                0x00000000       0x16 c:/program files/microchip/xc32/v3.01/bin/bin/../../lib/gcc/pic32c/8.3.1/../../../../pic32c/lib/thumb/v7e-m+fp/hard\libc_nano.a(lib_a-gmtime_r.o)
 .text.gmtime_r
                0x00000000      0x11c c:/program files/microchip/xc32/v3.01/bin/bin/../../lib/gcc/pic32c/8.3.1/../../../../pic32c/lib/thumb/v7e-m+fp/hard\libc_nano.a(lib_a-gmtime_r.o)
 .xc_stack_usage.hdr
                0x00000000        0xe c:/program files/microchip/xc32/v3.01/bin/bin/../../lib/gcc/pic32c/8.3.1/../../../../pic32c/lib/thumb/v7e-m+fp/hard\libc_nano.a(lib_a-gmtime_r.o)
 .comment       0x00000000       0x54 c:/program files/microchip/xc32/v3.01/bin/bin/../../lib/gcc/pic32c/8.3.1/../../../../pic32c/lib/thumb/v7e-m+fp/hard\libc_nano.a(lib_a-gmtime_r.o)
 .ARM.attributes
                0x00000000       0x34 c:/program files/microchip/xc32/v3.01/bin/bin/../../lib/gcc/pic32c/8.3.1/../../../../pic32c/lib/thumb/v7e-m+fp/hard\libc_nano.a(lib_a-gmtime_r.o)
 .text          0x00000000        0x0 c:/program files/microchip/xc32/v3.01/bin/bin/../../lib/gcc/pic32c/8.3.1/../../../../pic32c/lib/thumb/v7e-m+fp/hard\libc_nano.a(lib_a-impure.o)
 .data          0x00000000        0x0 c:/program files/microchip/xc32/v3.01/bin/bin/../../lib/gcc/pic32c/8.3.1/../../../../pic32c/lib/thumb/v7e-m+fp/hard\libc_nano.a(lib_a-impure.o)
 .bss           0x00000000        0x0 c:/program files/microchip/xc32/v3.01/bin/bin/../../lib/gcc/pic32c/8.3.1/../../../../pic32c/lib/thumb/v7e-m+fp/hard\libc_nano.a(lib_a-impure.o)
 .rodata._global_impure_ptr
                0x00000000        0x4 c:/program files/microchip/xc32/v3.01/bin/bin/../../lib/gcc/pic32c/8.3.1/../../../../pic32c/lib/thumb/v7e-m+fp/hard\libc_nano.a(lib_a-impure.o)
 .xc_stack_usage.hdr
                0x00000000        0xe c:/program files/microchip/xc32/v3.01/bin/bin/../../lib/gcc/pic32c/8.3.1/../../../../pic32c/lib/thumb/v7e-m+fp/hard\libc_nano.a(lib_a-impure.o)
 .text          0x00000000        0x0 c:/program files/microchip/xc32/v3.01/bin/bin/../../lib/gcc/pic32c/8.3.1/../../../../pic32c/lib/thumb/v7e-m+fp/hard\libc_nano.a(lib_a-init.o)
 .data          0x00000000        0x0 c:/program files/microchip/xc32/v3.01/bin/bin/../../lib/gcc/pic32c/8.3.1/../../../../pic32c/lib/thumb/v7e-m+fp/hard\libc_nano.a(lib_a-init.o)
 .bss           0x00000000        0x0 c:/program files/microchip/xc32/v3.01/bin/bin/../../lib/gcc/pic32c/8.3.1/../../../../pic32c/lib/thumb/v7e-m+fp/hard\libc_nano.a(lib_a-init.o)
 .xc_stack_usage
                0x00000000       0x1f c:/program files/microchip/xc32/v3.01/bin/bin/../../lib/gcc/pic32c/8.3.1/../../../../pic32c/lib/thumb/v7e-m+fp/hard\libc_nano.a(lib_a-init.o)
 .xc_stack_usage.hdr
                0x00000000        0xe c:/program files/microchip/xc32/v3.01/bin/bin/../../lib/gcc/pic32c/8.3.1/../../../../pic32c/lib/thumb/v7e-m+fp/hard\libc_nano.a(lib_a-init.o)
 .text          0x00000000        0x0 c:/program files/microchip/xc32/v3.01/bin/bin/../../lib/gcc/pic32c/8.3.1/../../../../pic32c/lib/thumb/v7e-m+fp/hard\libc_nano.a(lib_a-malloc.o)
 .data          0x00000000        0x0 c:/program files/microchip/xc32/v3.01/bin/bin/../../lib/gcc/pic32c/8.3.1/../../../../pic32c/lib/thumb/v7e-m+fp/hard\libc_nano.a(lib_a-malloc.o)
 .bss           0x00000000        0x0 c:/program files/microchip/xc32/v3.01/bin/bin/../../lib/gcc/pic32c/8.3.1/../../../../pic32c/lib/thumb/v7e-m+fp/hard\libc_nano.a(lib_a-malloc.o)
 .xc_stack_usage
                0x00000000       0x26 c:/program files/microchip/xc32/v3.01/bin/bin/../../lib/gcc/pic32c/8.3.1/../../../../pic32c/lib/thumb/v7e-m+fp/hard\libc_nano.a(lib_a-malloc.o)
 .xc_stack_usage.hdr
                0x00000000        0xe c:/program files/microchip/xc32/v3.01/bin/bin/../../lib/gcc/pic32c/8.3.1/../../../../pic32c/lib/thumb/v7e-m+fp/hard\libc_nano.a(lib_a-malloc.o)
 .text          0x00000000        0x0 c:/program files/microchip/xc32/v3.01/bin/bin/../../lib/gcc/pic32c/8.3.1/../../../../pic32c/lib/thumb/v7e-m+fp/hard\libc_nano.a(lib_a-memcpy-stub.o)
 .data          0x00000000        0x0 c:/program files/microchip/xc32/v3.01/bin/bin/../../lib/gcc/pic32c/8.3.1/../../../../pic32c/lib/thumb/v7e-m+fp/hard\libc_nano.a(lib_a-memcpy-stub.o)
 .bss           0x00000000        0x0 c:/program files/microchip/xc32/v3.01/bin/bin/../../lib/gcc/pic32c/8.3.1/../../../../pic32c/lib/thumb/v7e-m+fp/hard\libc_nano.a(lib_a-memcpy-stub.o)
 .xc_stack_usage
                0x00000000       0x14 c:/program files/microchip/xc32/v3.01/bin/bin/../../lib/gcc/pic32c/8.3.1/../../../../pic32c/lib/thumb/v7e-m+fp/hard\libc_nano.a(lib_a-memcpy-stub.o)
 .xc_stack_usage.hdr
                0x00000000        0xe c:/program files/microchip/xc32/v3.01/bin/bin/../../lib/gcc/pic32c/8.3.1/../../../../pic32c/lib/thumb/v7e-m+fp/hard\libc_nano.a(lib_a-memcpy-stub.o)
 .text          0x00000000        0x0 c:/program files/microchip/xc32/v3.01/bin/bin/../../lib/gcc/pic32c/8.3.1/../../../../pic32c/lib/thumb/v7e-m+fp/hard\libc_nano.a(lib_a-memset.o)
 .data          0x00000000        0x0 c:/program files/microchip/xc32/v3.01/bin/bin/../../lib/gcc/pic32c/8.3.1/../../../../pic32c/lib/thumb/v7e-m+fp/hard\libc_nano.a(lib_a-memset.o)
 .bss           0x00000000        0x0 c:/program files/microchip/xc32/v3.01/bin/bin/../../lib/gcc/pic32c/8.3.1/../../../../pic32c/lib/thumb/v7e-m+fp/hard\libc_nano.a(lib_a-memset.o)
 .xc_stack_usage
                0x00000000       0x14 c:/program files/microchip/xc32/v3.01/bin/bin/../../lib/gcc/pic32c/8.3.1/../../../../pic32c/lib/thumb/v7e-m+fp/hard\libc_nano.a(lib_a-memset.o)
 .xc_stack_usage.hdr
                0x00000000        0xe c:/program files/microchip/xc32/v3.01/bin/bin/../../lib/gcc/pic32c/8.3.1/../../../../pic32c/lib/thumb/v7e-m+fp/hard\libc_nano.a(lib_a-memset.o)
 .text          0x00000000        0x0 c:/program files/microchip/xc32/v3.01/bin/bin/../../lib/gcc/pic32c/8.3.1/../../../../pic32c/lib/thumb/v7e-m+fp/hard\libc_nano.a(lib_a-mktime.o)
 .data          0x00000000        0x0 c:/program files/microchip/xc32/v3.01/bin/bin/../../lib/gcc/pic32c/8.3.1/../../../../pic32c/lib/thumb/v7e-m+fp/hard\libc_nano.a(lib_a-mktime.o)
 .bss           0x00000000        0x0 c:/program files/microchip/xc32/v3.01/bin/bin/../../lib/gcc/pic32c/8.3.1/../../../../pic32c/lib/thumb/v7e-m+fp/hard\libc_nano.a(lib_a-mktime.o)
 .xc_stack_usage
                0x00000000       0x34 c:/program files/microchip/xc32/v3.01/bin/bin/../../lib/gcc/pic32c/8.3.1/../../../../pic32c/lib/thumb/v7e-m+fp/hard\libc_nano.a(lib_a-mktime.o)
 .xc_stack_usage.hdr
                0x00000000        0xe c:/program files/microchip/xc32/v3.01/bin/bin/../../lib/gcc/pic32c/8.3.1/../../../../pic32c/lib/thumb/v7e-m+fp/hard\libc_nano.a(lib_a-mktime.o)
 .text          0x00000000        0x0 c:/program files/microchip/xc32/v3.01/bin/bin/../../lib/gcc/pic32c/8.3.1/../../../../pic32c/lib/thumb/v7e-m+fp/hard\libc_nano.a(lib_a-nano-freer.o)
 .data          0x00000000        0x0 c:/program files/microchip/xc32/v3.01/bin/bin/../../lib/gcc/pic32c/8.3.1/../../../../pic32c/lib/thumb/v7e-m+fp/hard\libc_nano.a(lib_a-nano-freer.o)
 .bss           0x00000000        0x0 c:/program files/microchip/xc32/v3.01/bin/bin/../../lib/gcc/pic32c/8.3.1/../../../../pic32c/lib/thumb/v7e-m+fp/hard\libc_nano.a(lib_a-nano-freer.o)
 .xc_stack_usage
                0x00000000       0x15 c:/program files/microchip/xc32/v3.01/bin/bin/../../lib/gcc/pic32c/8.3.1/../../../../pic32c/lib/thumb/v7e-m+fp/hard\libc_nano.a(lib_a-nano-freer.o)
 .xc_stack_usage.hdr
                0x00000000        0xe c:/program files/microchip/xc32/v3.01/bin/bin/../../lib/gcc/pic32c/8.3.1/../../../../pic32c/lib/thumb/v7e-m+fp/hard\libc_nano.a(lib_a-nano-freer.o)
 .text          0x00000000        0x0 c:/program files/microchip/xc32/v3.01/bin/bin/../../lib/gcc/pic32c/8.3.1/../../../../pic32c/lib/thumb/v7e-m+fp/hard\libc_nano.a(lib_a-nano-mallocr.o)
 .data          0x00000000        0x0 c:/program files/microchip/xc32/v3.01/bin/bin/../../lib/gcc/pic32c/8.3.1/../../../../pic32c/lib/thumb/v7e-m+fp/hard\libc_nano.a(lib_a-nano-mallocr.o)
 .bss           0x00000000        0x0 c:/program files/microchip/xc32/v3.01/bin/bin/../../lib/gcc/pic32c/8.3.1/../../../../pic32c/lib/thumb/v7e-m+fp/hard\libc_nano.a(lib_a-nano-mallocr.o)
 .xc_stack_usage
                0x00000000       0x17 c:/program files/microchip/xc32/v3.01/bin/bin/../../lib/gcc/pic32c/8.3.1/../../../../pic32c/lib/thumb/v7e-m+fp/hard\libc_nano.a(lib_a-nano-mallocr.o)
 .xc_stack_usage.hdr
                0x00000000        0xe c:/program files/microchip/xc32/v3.01/bin/bin/../../lib/gcc/pic32c/8.3.1/../../../../pic32c/lib/thumb/v7e-m+fp/hard\libc_nano.a(lib_a-nano-mallocr.o)
 .text          0x00000000        0x0 c:/program files/microchip/xc32/v3.01/bin/bin/../../lib/gcc/pic32c/8.3.1/../../../../pic32c/lib/thumb/v7e-m+fp/hard\libc_nano.a(lib_a-sbrkr.o)
 .data          0x00000000        0x0 c:/program files/microchip/xc32/v3.01/bin/bin/../../lib/gcc/pic32c/8.3.1/../../../../pic32c/lib/thumb/v7e-m+fp/hard\libc_nano.a(lib_a-sbrkr.o)
 .bss           0x00000000        0x0 c:/program files/microchip/xc32/v3.01/bin/bin/../../lib/gcc/pic32c/8.3.1/../../../../pic32c/lib/thumb/v7e-m+fp/hard\libc_nano.a(lib_a-sbrkr.o)
 .xc_stack_usage
                0x00000000       0x15 c:/program files/microchip/xc32/v3.01/bin/bin/../../lib/gcc/pic32c/8.3.1/../../../../pic32c/lib/thumb/v7e-m+fp/hard\libc_nano.a(lib_a-sbrkr.o)
 .xc_stack_usage.hdr
                0x00000000        0xe c:/program files/microchip/xc32/v3.01/bin/bin/../../lib/gcc/pic32c/8.3.1/../../../../pic32c/lib/thumb/v7e-m+fp/hard\libc_nano.a(lib_a-sbrkr.o)
 .text          0x00000000        0x0 c:/program files/microchip/xc32/v3.01/bin/bin/../../lib/gcc/pic32c/8.3.1/../../../../pic32c/lib/thumb/v7e-m+fp/hard\libc_nano.a(lib_a-sprintf.o)
 .data          0x00000000        0x0 c:/program files/microchip/xc32/v3.01/bin/bin/../../lib/gcc/pic32c/8.3.1/../../../../pic32c/lib/thumb/v7e-m+fp/hard\libc_nano.a(lib_a-sprintf.o)
 .bss           0x00000000        0x0 c:/program files/microchip/xc32/v3.01/bin/bin/../../lib/gcc/pic32c/8.3.1/../../../../pic32c/lib/thumb/v7e-m+fp/hard\libc_nano.a(lib_a-sprintf.o)
 .xc_stack_usage
                0x00000000       0x2d c:/program files/microchip/xc32/v3.01/bin/bin/../../lib/gcc/pic32c/8.3.1/../../../../pic32c/lib/thumb/v7e-m+fp/hard\libc_nano.a(lib_a-sprintf.o)
 .text._sprintf_r
                0x00000000       0x3c c:/program files/microchip/xc32/v3.01/bin/bin/../../lib/gcc/pic32c/8.3.1/../../../../pic32c/lib/thumb/v7e-m+fp/hard\libc_nano.a(lib_a-sprintf.o)
 .text.sprintf  0x00000000       0x44 c:/program files/microchip/xc32/v3.01/bin/bin/../../lib/gcc/pic32c/8.3.1/../../../../pic32c/lib/thumb/v7e-m+fp/hard\libc_nano.a(lib_a-sprintf.o)
 .xc_stack_usage.hdr
                0x00000000        0xe c:/program files/microchip/xc32/v3.01/bin/bin/../../lib/gcc/pic32c/8.3.1/../../../../pic32c/lib/thumb/v7e-m+fp/hard\libc_nano.a(lib_a-sprintf.o)
 .comment       0x00000000       0x54 c:/program files/microchip/xc32/v3.01/bin/bin/../../lib/gcc/pic32c/8.3.1/../../../../pic32c/lib/thumb/v7e-m+fp/hard\libc_nano.a(lib_a-sprintf.o)
 .ARM.attributes
                0x00000000       0x34 c:/program files/microchip/xc32/v3.01/bin/bin/../../lib/gcc/pic32c/8.3.1/../../../../pic32c/lib/thumb/v7e-m+fp/hard\libc_nano.a(lib_a-sprintf.o)
 .text          0x00000000        0x0 c:/program files/microchip/xc32/v3.01/bin/bin/../../lib/gcc/pic32c/8.3.1/../../../../pic32c/lib/thumb/v7e-m+fp/hard\libc_nano.a(lib_a-strchr.o)
 .data          0x00000000        0x0 c:/program files/microchip/xc32/v3.01/bin/bin/../../lib/gcc/pic32c/8.3.1/../../../../pic32c/lib/thumb/v7e-m+fp/hard\libc_nano.a(lib_a-strchr.o)
 .bss           0x00000000        0x0 c:/program files/microchip/xc32/v3.01/bin/bin/../../lib/gcc/pic32c/8.3.1/../../../../pic32c/lib/thumb/v7e-m+fp/hard\libc_nano.a(lib_a-strchr.o)
 .xc_stack_usage
                0x00000000       0x14 c:/program files/microchip/xc32/v3.01/bin/bin/../../lib/gcc/pic32c/8.3.1/../../../../pic32c/lib/thumb/v7e-m+fp/hard\libc_nano.a(lib_a-strchr.o)
 .xc_stack_usage.hdr
                0x00000000        0xe c:/program files/microchip/xc32/v3.01/bin/bin/../../lib/gcc/pic32c/8.3.1/../../../../pic32c/lib/thumb/v7e-m+fp/hard\libc_nano.a(lib_a-strchr.o)
 .data          0x00000000        0x0 c:/program files/microchip/xc32/v3.01/bin/bin/../../lib/gcc/pic32c/8.3.1/../../../../pic32c/lib/thumb/v7e-m+fp/hard\libc_nano.a(lib_a-strlen.o)
 .bss           0x00000000        0x0 c:/program files/microchip/xc32/v3.01/bin/bin/../../lib/gcc/pic32c/8.3.1/../../../../pic32c/lib/thumb/v7e-m+fp/hard\libc_nano.a(lib_a-strlen.o)
 .xc_stack_usage.hdr
                0x00000000        0xe c:/program files/microchip/xc32/v3.01/bin/bin/../../lib/gcc/pic32c/8.3.1/../../../../pic32c/lib/thumb/v7e-m+fp/hard\libc_nano.a(lib_a-strlen.o)
 .xc_stack_usage
                0x00000000       0x14 c:/program files/microchip/xc32/v3.01/bin/bin/../../lib/gcc/pic32c/8.3.1/../../../../pic32c/lib/thumb/v7e-m+fp/hard\libc_nano.a(lib_a-strlen.o)
 .text          0x00000000        0x0 c:/program files/microchip/xc32/v3.01/bin/bin/../../lib/gcc/pic32c/8.3.1/../../../../pic32c/lib/thumb/v7e-m+fp/hard\libc_nano.a(lib_a-tzcalc_limits.o)
 .data          0x00000000        0x0 c:/program files/microchip/xc32/v3.01/bin/bin/../../lib/gcc/pic32c/8.3.1/../../../../pic32c/lib/thumb/v7e-m+fp/hard\libc_nano.a(lib_a-tzcalc_limits.o)
 .bss           0x00000000        0x0 c:/program files/microchip/xc32/v3.01/bin/bin/../../lib/gcc/pic32c/8.3.1/../../../../pic32c/lib/thumb/v7e-m+fp/hard\libc_nano.a(lib_a-tzcalc_limits.o)
 .xc_stack_usage
                0x00000000       0x1d c:/program files/microchip/xc32/v3.01/bin/bin/../../lib/gcc/pic32c/8.3.1/../../../../pic32c/lib/thumb/v7e-m+fp/hard\libc_nano.a(lib_a-tzcalc_limits.o)
 .xc_stack_usage.hdr
                0x00000000        0xe c:/program files/microchip/xc32/v3.01/bin/bin/../../lib/gcc/pic32c/8.3.1/../../../../pic32c/lib/thumb/v7e-m+fp/hard\libc_nano.a(lib_a-tzcalc_limits.o)
 .text          0x00000000        0x0 c:/program files/microchip/xc32/v3.01/bin/bin/../../lib/gcc/pic32c/8.3.1/../../../../pic32c/lib/thumb/v7e-m+fp/hard\libc_nano.a(lib_a-tzset.o)
 .data          0x00000000        0x0 c:/program files/microchip/xc32/v3.01/bin/bin/../../lib/gcc/pic32c/8.3.1/../../../../pic32c/lib/thumb/v7e-m+fp/hard\libc_nano.a(lib_a-tzset.o)
 .bss           0x00000000        0x0 c:/program files/microchip/xc32/v3.01/bin/bin/../../lib/gcc/pic32c/8.3.1/../../../../pic32c/lib/thumb/v7e-m+fp/hard\libc_nano.a(lib_a-tzset.o)
 .xc_stack_usage
                0x00000000       0x30 c:/program files/microchip/xc32/v3.01/bin/bin/../../lib/gcc/pic32c/8.3.1/../../../../pic32c/lib/thumb/v7e-m+fp/hard\libc_nano.a(lib_a-tzset.o)
 .xc_stack_usage.hdr
                0x00000000        0xe c:/program files/microchip/xc32/v3.01/bin/bin/../../lib/gcc/pic32c/8.3.1/../../../../pic32c/lib/thumb/v7e-m+fp/hard\libc_nano.a(lib_a-tzset.o)
 .text          0x00000000        0x0 c:/program files/microchip/xc32/v3.01/bin/bin/../../lib/gcc/pic32c/8.3.1/../../../../pic32c/lib/thumb/v7e-m+fp/hard\libc_nano.a(lib_a-tzset_r.o)
 .data          0x00000000        0x0 c:/program files/microchip/xc32/v3.01/bin/bin/../../lib/gcc/pic32c/8.3.1/../../../../pic32c/lib/thumb/v7e-m+fp/hard\libc_nano.a(lib_a-tzset_r.o)
 .bss           0x00000000        0x0 c:/program files/microchip/xc32/v3.01/bin/bin/../../lib/gcc/pic32c/8.3.1/../../../../pic32c/lib/thumb/v7e-m+fp/hard\libc_nano.a(lib_a-tzset_r.o)
 .xc_stack_usage
                0x00000000       0x35 c:/program files/microchip/xc32/v3.01/bin/bin/../../lib/gcc/pic32c/8.3.1/../../../../pic32c/lib/thumb/v7e-m+fp/hard\libc_nano.a(lib_a-tzset_r.o)
 .text._tzset_r
                0x00000000        0x4 c:/program files/microchip/xc32/v3.01/bin/bin/../../lib/gcc/pic32c/8.3.1/../../../../pic32c/lib/thumb/v7e-m+fp/hard\libc_nano.a(lib_a-tzset_r.o)
 .xc_stack_usage.hdr
                0x00000000        0xe c:/program files/microchip/xc32/v3.01/bin/bin/../../lib/gcc/pic32c/8.3.1/../../../../pic32c/lib/thumb/v7e-m+fp/hard\libc_nano.a(lib_a-tzset_r.o)
 .text          0x00000000        0x0 c:/program files/microchip/xc32/v3.01/bin/bin/../../lib/gcc/pic32c/8.3.1/../../../../pic32c/lib/thumb/v7e-m+fp/hard\libc_nano.a(lib_a-tzvars.o)
 .data          0x00000000        0x0 c:/program files/microchip/xc32/v3.01/bin/bin/../../lib/gcc/pic32c/8.3.1/../../../../pic32c/lib/thumb/v7e-m+fp/hard\libc_nano.a(lib_a-tzvars.o)
 .bss           0x00000000        0x0 c:/program files/microchip/xc32/v3.01/bin/bin/../../lib/gcc/pic32c/8.3.1/../../../../pic32c/lib/thumb/v7e-m+fp/hard\libc_nano.a(lib_a-tzvars.o)
 .xc_stack_usage.hdr
                0x00000000        0xe c:/program files/microchip/xc32/v3.01/bin/bin/../../lib/gcc/pic32c/8.3.1/../../../../pic32c/lib/thumb/v7e-m+fp/hard\libc_nano.a(lib_a-tzvars.o)
 .text          0x00000000        0x0 c:/program files/microchip/xc32/v3.01/bin/bin/../../lib/gcc/pic32c/8.3.1/../../../../pic32c/lib/thumb/v7e-m+fp/hard\libc_nano.a(lib_a-vsnprintf.o)
 .data          0x00000000        0x0 c:/program files/microchip/xc32/v3.01/bin/bin/../../lib/gcc/pic32c/8.3.1/../../../../pic32c/lib/thumb/v7e-m+fp/hard\libc_nano.a(lib_a-vsnprintf.o)
 .bss           0x00000000        0x0 c:/program files/microchip/xc32/v3.01/bin/bin/../../lib/gcc/pic32c/8.3.1/../../../../pic32c/lib/thumb/v7e-m+fp/hard\libc_nano.a(lib_a-vsnprintf.o)
 .xc_stack_usage
                0x00000000       0x31 c:/program files/microchip/xc32/v3.01/bin/bin/../../lib/gcc/pic32c/8.3.1/../../../../pic32c/lib/thumb/v7e-m+fp/hard\libc_nano.a(lib_a-vsnprintf.o)
 .xc_stack_usage.hdr
                0x00000000        0xe c:/program files/microchip/xc32/v3.01/bin/bin/../../lib/gcc/pic32c/8.3.1/../../../../pic32c/lib/thumb/v7e-m+fp/hard\libc_nano.a(lib_a-vsnprintf.o)
 .text          0x00000000        0x0 c:/program files/microchip/xc32/v3.01/bin/bin/../../lib/gcc/pic32c/8.3.1/../../../../pic32c/lib/thumb/v7e-m+fp/hard\libc_nano.a(lib_a-div.o)
 .data          0x00000000        0x0 c:/program files/microchip/xc32/v3.01/bin/bin/../../lib/gcc/pic32c/8.3.1/../../../../pic32c/lib/thumb/v7e-m+fp/hard\libc_nano.a(lib_a-div.o)
 .bss           0x00000000        0x0 c:/program files/microchip/xc32/v3.01/bin/bin/../../lib/gcc/pic32c/8.3.1/../../../../pic32c/lib/thumb/v7e-m+fp/hard\libc_nano.a(lib_a-div.o)
 .xc_stack_usage
                0x00000000       0x11 c:/program files/microchip/xc32/v3.01/bin/bin/../../lib/gcc/pic32c/8.3.1/../../../../pic32c/lib/thumb/v7e-m+fp/hard\libc_nano.a(lib_a-div.o)
 .xc_stack_usage.hdr
                0x00000000        0xe c:/program files/microchip/xc32/v3.01/bin/bin/../../lib/gcc/pic32c/8.3.1/../../../../pic32c/lib/thumb/v7e-m+fp/hard\libc_nano.a(lib_a-div.o)
 .text          0x00000000        0x0 c:/program files/microchip/xc32/v3.01/bin/bin/../../lib/gcc/pic32c/8.3.1/../../../../pic32c/lib/thumb/v7e-m+fp/hard\libc_nano.a(lib_a-getenv_r.o)
 .data          0x00000000        0x0 c:/program files/microchip/xc32/v3.01/bin/bin/../../lib/gcc/pic32c/8.3.1/../../../../pic32c/lib/thumb/v7e-m+fp/hard\libc_nano.a(lib_a-getenv_r.o)
 .bss           0x00000000        0x0 c:/program files/microchip/xc32/v3.01/bin/bin/../../lib/gcc/pic32c/8.3.1/../../../../pic32c/lib/thumb/v7e-m+fp/hard\libc_nano.a(lib_a-getenv_r.o)
 .xc_stack_usage
                0x00000000       0x2f c:/program files/microchip/xc32/v3.01/bin/bin/../../lib/gcc/pic32c/8.3.1/../../../../pic32c/lib/thumb/v7e-m+fp/hard\libc_nano.a(lib_a-getenv_r.o)
 .xc_stack_usage.hdr
                0x00000000        0xe c:/program files/microchip/xc32/v3.01/bin/bin/../../lib/gcc/pic32c/8.3.1/../../../../pic32c/lib/thumb/v7e-m+fp/hard\libc_nano.a(lib_a-getenv_r.o)
 .text          0x00000000        0x0 c:/program files/microchip/xc32/v3.01/bin/bin/../../lib/gcc/pic32c/8.3.1/../../../../pic32c/lib/thumb/v7e-m+fp/hard\libc_nano.a(lib_a-gettzinfo.o)
 .data          0x00000000        0x0 c:/program files/microchip/xc32/v3.01/bin/bin/../../lib/gcc/pic32c/8.3.1/../../../../pic32c/lib/thumb/v7e-m+fp/hard\libc_nano.a(lib_a-gettzinfo.o)
 .bss           0x00000000        0x0 c:/program files/microchip/xc32/v3.01/bin/bin/../../lib/gcc/pic32c/8.3.1/../../../../pic32c/lib/thumb/v7e-m+fp/hard\libc_nano.a(lib_a-gettzinfo.o)
 .xc_stack_usage
                0x00000000       0x19 c:/program files/microchip/xc32/v3.01/bin/bin/../../lib/gcc/pic32c/8.3.1/../../../../pic32c/lib/thumb/v7e-m+fp/hard\libc_nano.a(lib_a-gettzinfo.o)
 .xc_stack_usage.hdr
                0x00000000        0xe c:/program files/microchip/xc32/v3.01/bin/bin/../../lib/gcc/pic32c/8.3.1/../../../../pic32c/lib/thumb/v7e-m+fp/hard\libc_nano.a(lib_a-gettzinfo.o)
 .text          0x00000000        0x0 c:/program files/microchip/xc32/v3.01/bin/bin/../../lib/gcc/pic32c/8.3.1/../../../../pic32c/lib/thumb/v7e-m+fp/hard\libc_nano.a(lib_a-mlock.o)
 .data          0x00000000        0x0 c:/program files/microchip/xc32/v3.01/bin/bin/../../lib/gcc/pic32c/8.3.1/../../../../pic32c/lib/thumb/v7e-m+fp/hard\libc_nano.a(lib_a-mlock.o)
 .bss           0x00000000        0x0 c:/program files/microchip/xc32/v3.01/bin/bin/../../lib/gcc/pic32c/8.3.1/../../../../pic32c/lib/thumb/v7e-m+fp/hard\libc_nano.a(lib_a-mlock.o)
 .xc_stack_usage
                0x00000000       0x38 c:/program files/microchip/xc32/v3.01/bin/bin/../../lib/gcc/pic32c/8.3.1/../../../../pic32c/lib/thumb/v7e-m+fp/hard\libc_nano.a(lib_a-mlock.o)
 .xc_stack_usage.hdr
                0x00000000        0xe c:/program files/microchip/xc32/v3.01/bin/bin/../../lib/gcc/pic32c/8.3.1/../../../../pic32c/lib/thumb/v7e-m+fp/hard\libc_nano.a(lib_a-mlock.o)
 .text          0x00000000        0x0 c:/program files/microchip/xc32/v3.01/bin/bin/../../lib/gcc/pic32c/8.3.1/../../../../pic32c/lib/thumb/v7e-m+fp/hard\libc_nano.a(lib_a-month_lengths.o)
 .data          0x00000000        0x0 c:/program files/microchip/xc32/v3.01/bin/bin/../../lib/gcc/pic32c/8.3.1/../../../../pic32c/lib/thumb/v7e-m+fp/hard\libc_nano.a(lib_a-month_lengths.o)
 .bss           0x00000000        0x0 c:/program files/microchip/xc32/v3.01/bin/bin/../../lib/gcc/pic32c/8.3.1/../../../../pic32c/lib/thumb/v7e-m+fp/hard\libc_nano.a(lib_a-month_lengths.o)
 .xc_stack_usage.hdr
                0x00000000        0xe c:/program files/microchip/xc32/v3.01/bin/bin/../../lib/gcc/pic32c/8.3.1/../../../../pic32c/lib/thumb/v7e-m+fp/hard\libc_nano.a(lib_a-month_lengths.o)
 .text          0x00000000        0x0 c:/program files/microchip/xc32/v3.01/bin/bin/../../lib/gcc/pic32c/8.3.1/../../../../pic32c/lib/thumb/v7e-m+fp/hard\libc_nano.a(lib_a-nano-svfprintf.o)
 .data          0x00000000        0x0 c:/program files/microchip/xc32/v3.01/bin/bin/../../lib/gcc/pic32c/8.3.1/../../../../pic32c/lib/thumb/v7e-m+fp/hard\libc_nano.a(lib_a-nano-svfprintf.o)
 .bss           0x00000000        0x0 c:/program files/microchip/xc32/v3.01/bin/bin/../../lib/gcc/pic32c/8.3.1/../../../../pic32c/lib/thumb/v7e-m+fp/hard\libc_nano.a(lib_a-nano-svfprintf.o)
 .xc_stack_usage
                0x00000000       0x1a c:/program files/microchip/xc32/v3.01/bin/bin/../../lib/gcc/pic32c/8.3.1/../../../../pic32c/lib/thumb/v7e-m+fp/hard\libc_nano.a(lib_a-nano-svfprintf.o)
 .xc_stack_usage.hdr
                0x00000000        0xe c:/program files/microchip/xc32/v3.01/bin/bin/../../lib/gcc/pic32c/8.3.1/../../../../pic32c/lib/thumb/v7e-m+fp/hard\libc_nano.a(lib_a-nano-svfprintf.o)
 .text          0x00000000        0x0 c:/program files/microchip/xc32/v3.01/bin/bin/../../lib/gcc/pic32c/8.3.1/../../../../pic32c/lib/thumb/v7e-m+fp/hard\libc_nano.a(lib_a-nano-vfprintf_float.o)
 .data          0x00000000        0x0 c:/program files/microchip/xc32/v3.01/bin/bin/../../lib/gcc/pic32c/8.3.1/../../../../pic32c/lib/thumb/v7e-m+fp/hard\libc_nano.a(lib_a-nano-vfprintf_float.o)
 .bss           0x00000000        0x0 c:/program files/microchip/xc32/v3.01/bin/bin/../../lib/gcc/pic32c/8.3.1/../../../../pic32c/lib/thumb/v7e-m+fp/hard\libc_nano.a(lib_a-nano-vfprintf_float.o)
 .xc_stack_usage
                0x00000000       0x1b c:/program files/microchip/xc32/v3.01/bin/bin/../../lib/gcc/pic32c/8.3.1/../../../../pic32c/lib/thumb/v7e-m+fp/hard\libc_nano.a(lib_a-nano-vfprintf_float.o)
 .xc_stack_usage.hdr
                0x00000000        0xe c:/program files/microchip/xc32/v3.01/bin/bin/../../lib/gcc/pic32c/8.3.1/../../../../pic32c/lib/thumb/v7e-m+fp/hard\libc_nano.a(lib_a-nano-vfprintf_float.o)
 .text          0x00000000        0x0 c:/program files/microchip/xc32/v3.01/bin/bin/../../lib/gcc/pic32c/8.3.1/../../../../pic32c/lib/thumb/v7e-m+fp/hard\libc_nano.a(lib_a-nano-vfprintf_i.o)
 .data          0x00000000        0x0 c:/program files/microchip/xc32/v3.01/bin/bin/../../lib/gcc/pic32c/8.3.1/../../../../pic32c/lib/thumb/v7e-m+fp/hard\libc_nano.a(lib_a-nano-vfprintf_i.o)
 .bss           0x00000000        0x0 c:/program files/microchip/xc32/v3.01/bin/bin/../../lib/gcc/pic32c/8.3.1/../../../../pic32c/lib/thumb/v7e-m+fp/hard\libc_nano.a(lib_a-nano-vfprintf_i.o)
 .xc_stack_usage
                0x00000000       0x33 c:/program files/microchip/xc32/v3.01/bin/bin/../../lib/gcc/pic32c/8.3.1/../../../../pic32c/lib/thumb/v7e-m+fp/hard\libc_nano.a(lib_a-nano-vfprintf_i.o)
 .xc_stack_usage.hdr
                0x00000000        0xe c:/program files/microchip/xc32/v3.01/bin/bin/../../lib/gcc/pic32c/8.3.1/../../../../pic32c/lib/thumb/v7e-m+fp/hard\libc_nano.a(lib_a-nano-vfprintf_i.o)
 .text          0x00000000        0x0 c:/program files/microchip/xc32/v3.01/bin/bin/../../lib/gcc/pic32c/8.3.1/../../../../pic32c/lib/thumb/v7e-m+fp/hard\libc_nano.a(lib_a-reent.o)
 .data          0x00000000        0x0 c:/program files/microchip/xc32/v3.01/bin/bin/../../lib/gcc/pic32c/8.3.1/../../../../pic32c/lib/thumb/v7e-m+fp/hard\libc_nano.a(lib_a-reent.o)
 .bss           0x00000000        0x0 c:/program files/microchip/xc32/v3.01/bin/bin/../../lib/gcc/pic32c/8.3.1/../../../../pic32c/lib/thumb/v7e-m+fp/hard\libc_nano.a(lib_a-reent.o)
 .xc_stack_usage
                0x00000000       0x36 c:/program files/microchip/xc32/v3.01/bin/bin/../../lib/gcc/pic32c/8.3.1/../../../../pic32c/lib/thumb/v7e-m+fp/hard\libc_nano.a(lib_a-reent.o)
 .text.cleanup_glue
                0x00000000       0x1a c:/program files/microchip/xc32/v3.01/bin/bin/../../lib/gcc/pic32c/8.3.1/../../../../pic32c/lib/thumb/v7e-m+fp/hard\libc_nano.a(lib_a-reent.o)
 .text._reclaim_reent
                0x00000000       0xb8 c:/program files/microchip/xc32/v3.01/bin/bin/../../lib/gcc/pic32c/8.3.1/../../../../pic32c/lib/thumb/v7e-m+fp/hard\libc_nano.a(lib_a-reent.o)
 .xc_stack_usage.hdr
                0x00000000        0xe c:/program files/microchip/xc32/v3.01/bin/bin/../../lib/gcc/pic32c/8.3.1/../../../../pic32c/lib/thumb/v7e-m+fp/hard\libc_nano.a(lib_a-reent.o)
 .text          0x00000000        0x0 c:/program files/microchip/xc32/v3.01/bin/bin/../../lib/gcc/pic32c/8.3.1/../../../../pic32c/lib/thumb/v7e-m+fp/hard\libc_nano.a(lib_a-sscanf.o)
 .data          0x00000000        0x0 c:/program files/microchip/xc32/v3.01/bin/bin/../../lib/gcc/pic32c/8.3.1/../../../../pic32c/lib/thumb/v7e-m+fp/hard\libc_nano.a(lib_a-sscanf.o)
 .bss           0x00000000        0x0 c:/program files/microchip/xc32/v3.01/bin/bin/../../lib/gcc/pic32c/8.3.1/../../../../pic32c/lib/thumb/v7e-m+fp/hard\libc_nano.a(lib_a-sscanf.o)
 .xc_stack_usage
                0x00000000       0x2b c:/program files/microchip/xc32/v3.01/bin/bin/../../lib/gcc/pic32c/8.3.1/../../../../pic32c/lib/thumb/v7e-m+fp/hard\libc_nano.a(lib_a-sscanf.o)
 .text._sscanf_r
                0x00000000       0x54 c:/program files/microchip/xc32/v3.01/bin/bin/../../lib/gcc/pic32c/8.3.1/../../../../pic32c/lib/thumb/v7e-m+fp/hard\libc_nano.a(lib_a-sscanf.o)
 .xc_stack_usage.hdr
                0x00000000        0xe c:/program files/microchip/xc32/v3.01/bin/bin/../../lib/gcc/pic32c/8.3.1/../../../../pic32c/lib/thumb/v7e-m+fp/hard\libc_nano.a(lib_a-sscanf.o)
 .text          0x00000000        0x0 c:/program files/microchip/xc32/v3.01/bin/bin/../../lib/gcc/pic32c/8.3.1/../../../../pic32c/lib/thumb/v7e-m+fp/hard\libc_nano.a(lib_a-stdio.o)
 .data          0x00000000        0x0 c:/program files/microchip/xc32/v3.01/bin/bin/../../lib/gcc/pic32c/8.3.1/../../../../pic32c/lib/thumb/v7e-m+fp/hard\libc_nano.a(lib_a-stdio.o)
 .bss           0x00000000        0x0 c:/program files/microchip/xc32/v3.01/bin/bin/../../lib/gcc/pic32c/8.3.1/../../../../pic32c/lib/thumb/v7e-m+fp/hard\libc_nano.a(lib_a-stdio.o)
 .xc_stack_usage
                0x00000000       0x6e c:/program files/microchip/xc32/v3.01/bin/bin/../../lib/gcc/pic32c/8.3.1/../../../../pic32c/lib/thumb/v7e-m+fp/hard\libc_nano.a(lib_a-stdio.o)
 .text.__sread  0x00000000       0x22 c:/program files/microchip/xc32/v3.01/bin/bin/../../lib/gcc/pic32c/8.3.1/../../../../pic32c/lib/thumb/v7e-m+fp/hard\libc_nano.a(lib_a-stdio.o)
 .text.__swrite
                0x00000000       0x38 c:/program files/microchip/xc32/v3.01/bin/bin/../../lib/gcc/pic32c/8.3.1/../../../../pic32c/lib/thumb/v7e-m+fp/hard\libc_nano.a(lib_a-stdio.o)
 .text.__sseek  0x00000000       0x24 c:/program files/microchip/xc32/v3.01/bin/bin/../../lib/gcc/pic32c/8.3.1/../../../../pic32c/lib/thumb/v7e-m+fp/hard\libc_nano.a(lib_a-stdio.o)
 .text.__sclose
                0x00000000        0x8 c:/program files/microchip/xc32/v3.01/bin/bin/../../lib/gcc/pic32c/8.3.1/../../../../pic32c/lib/thumb/v7e-m+fp/hard\libc_nano.a(lib_a-stdio.o)
 .xc_stack_usage.hdr
                0x00000000        0xe c:/program files/microchip/xc32/v3.01/bin/bin/../../lib/gcc/pic32c/8.3.1/../../../../pic32c/lib/thumb/v7e-m+fp/hard\libc_nano.a(lib_a-stdio.o)
 .data          0x00000000        0x0 c:/program files/microchip/xc32/v3.01/bin/bin/../../lib/gcc/pic32c/8.3.1/../../../../pic32c/lib/thumb/v7e-m+fp/hard\libc_nano.a(lib_a-strcmp.o)
 .bss           0x00000000        0x0 c:/program files/microchip/xc32/v3.01/bin/bin/../../lib/gcc/pic32c/8.3.1/../../../../pic32c/lib/thumb/v7e-m+fp/hard\libc_nano.a(lib_a-strcmp.o)
 .xc_stack_usage.hdr
                0x00000000        0xe c:/program files/microchip/xc32/v3.01/bin/bin/../../lib/gcc/pic32c/8.3.1/../../../../pic32c/lib/thumb/v7e-m+fp/hard\libc_nano.a(lib_a-strcmp.o)
 .xc_stack_usage
                0x00000000       0x14 c:/program files/microchip/xc32/v3.01/bin/bin/../../lib/gcc/pic32c/8.3.1/../../../../pic32c/lib/thumb/v7e-m+fp/hard\libc_nano.a(lib_a-strcmp.o)
 .text          0x00000000        0x0 c:/program files/microchip/xc32/v3.01/bin/bin/../../lib/gcc/pic32c/8.3.1/../../../../pic32c/lib/thumb/v7e-m+fp/hard\libc_nano.a(lib_a-strcpy.o)
 .data          0x00000000        0x0 c:/program files/microchip/xc32/v3.01/bin/bin/../../lib/gcc/pic32c/8.3.1/../../../../pic32c/lib/thumb/v7e-m+fp/hard\libc_nano.a(lib_a-strcpy.o)
 .bss           0x00000000        0x0 c:/program files/microchip/xc32/v3.01/bin/bin/../../lib/gcc/pic32c/8.3.1/../../../../pic32c/lib/thumb/v7e-m+fp/hard\libc_nano.a(lib_a-strcpy.o)
 .xc_stack_usage
                0x00000000       0x14 c:/program files/microchip/xc32/v3.01/bin/bin/../../lib/gcc/pic32c/8.3.1/../../../../pic32c/lib/thumb/v7e-m+fp/hard\libc_nano.a(lib_a-strcpy.o)
 .xc_stack_usage.hdr
                0x00000000        0xe c:/program files/microchip/xc32/v3.01/bin/bin/../../lib/gcc/pic32c/8.3.1/../../../../pic32c/lib/thumb/v7e-m+fp/hard\libc_nano.a(lib_a-strcpy.o)
 .text          0x00000000        0x0 c:/program files/microchip/xc32/v3.01/bin/bin/../../lib/gcc/pic32c/8.3.1/../../../../pic32c/lib/thumb/v7e-m+fp/hard\libc_nano.a(lib_a-strncmp.o)
 .data          0x00000000        0x0 c:/program files/microchip/xc32/v3.01/bin/bin/../../lib/gcc/pic32c/8.3.1/../../../../pic32c/lib/thumb/v7e-m+fp/hard\libc_nano.a(lib_a-strncmp.o)
 .bss           0x00000000        0x0 c:/program files/microchip/xc32/v3.01/bin/bin/../../lib/gcc/pic32c/8.3.1/../../../../pic32c/lib/thumb/v7e-m+fp/hard\libc_nano.a(lib_a-strncmp.o)
 .xc_stack_usage
                0x00000000       0x15 c:/program files/microchip/xc32/v3.01/bin/bin/../../lib/gcc/pic32c/8.3.1/../../../../pic32c/lib/thumb/v7e-m+fp/hard\libc_nano.a(lib_a-strncmp.o)
 .xc_stack_usage.hdr
                0x00000000        0xe c:/program files/microchip/xc32/v3.01/bin/bin/../../lib/gcc/pic32c/8.3.1/../../../../pic32c/lib/thumb/v7e-m+fp/hard\libc_nano.a(lib_a-strncmp.o)
 .text          0x00000000        0x0 c:/program files/microchip/xc32/v3.01/bin/bin/../../lib/gcc/pic32c/8.3.1/../../../../pic32c/lib/thumb/v7e-m+fp/hard\libc_nano.a(lib_a-strtoul.o)
 .data          0x00000000        0x0 c:/program files/microchip/xc32/v3.01/bin/bin/../../lib/gcc/pic32c/8.3.1/../../../../pic32c/lib/thumb/v7e-m+fp/hard\libc_nano.a(lib_a-strtoul.o)
 .bss           0x00000000        0x0 c:/program files/microchip/xc32/v3.01/bin/bin/../../lib/gcc/pic32c/8.3.1/../../../../pic32c/lib/thumb/v7e-m+fp/hard\libc_nano.a(lib_a-strtoul.o)
 .xc_stack_usage
                0x00000000       0x63 c:/program files/microchip/xc32/v3.01/bin/bin/../../lib/gcc/pic32c/8.3.1/../../../../pic32c/lib/thumb/v7e-m+fp/hard\libc_nano.a(lib_a-strtoul.o)
 .text.strtoul_l
                0x00000000       0x14 c:/program files/microchip/xc32/v3.01/bin/bin/../../lib/gcc/pic32c/8.3.1/../../../../pic32c/lib/thumb/v7e-m+fp/hard\libc_nano.a(lib_a-strtoul.o)
 .xc_stack_usage.hdr
                0x00000000        0xe c:/program files/microchip/xc32/v3.01/bin/bin/../../lib/gcc/pic32c/8.3.1/../../../../pic32c/lib/thumb/v7e-m+fp/hard\libc_nano.a(lib_a-strtoul.o)
 .text          0x00000000        0x0 c:/program files/microchip/xc32/v3.01/bin/bin/../../lib/gcc/pic32c/8.3.1/../../../../pic32c/lib/thumb/v7e-m+fp/hard\libc_nano.a(lib_a-writer.o)
 .data          0x00000000        0x0 c:/program files/microchip/xc32/v3.01/bin/bin/../../lib/gcc/pic32c/8.3.1/../../../../pic32c/lib/thumb/v7e-m+fp/hard\libc_nano.a(lib_a-writer.o)
 .bss           0x00000000        0x0 c:/program files/microchip/xc32/v3.01/bin/bin/../../lib/gcc/pic32c/8.3.1/../../../../pic32c/lib/thumb/v7e-m+fp/hard\libc_nano.a(lib_a-writer.o)
 .xc_stack_usage
                0x00000000       0x16 c:/program files/microchip/xc32/v3.01/bin/bin/../../lib/gcc/pic32c/8.3.1/../../../../pic32c/lib/thumb/v7e-m+fp/hard\libc_nano.a(lib_a-writer.o)
 .text._write_r
                0x00000000       0x24 c:/program files/microchip/xc32/v3.01/bin/bin/../../lib/gcc/pic32c/8.3.1/../../../../pic32c/lib/thumb/v7e-m+fp/hard\libc_nano.a(lib_a-writer.o)
 .xc_stack_usage.hdr
                0x00000000        0xe c:/program files/microchip/xc32/v3.01/bin/bin/../../lib/gcc/pic32c/8.3.1/../../../../pic32c/lib/thumb/v7e-m+fp/hard\libc_nano.a(lib_a-writer.o)
 .comment       0x00000000       0x54 c:/program files/microchip/xc32/v3.01/bin/bin/../../lib/gcc/pic32c/8.3.1/../../../../pic32c/lib/thumb/v7e-m+fp/hard\libc_nano.a(lib_a-writer.o)
 .ARM.attributes
                0x00000000       0x34 c:/program files/microchip/xc32/v3.01/bin/bin/../../lib/gcc/pic32c/8.3.1/../../../../pic32c/lib/thumb/v7e-m+fp/hard\libc_nano.a(lib_a-writer.o)
 .text          0x00000000        0x0 c:/program files/microchip/xc32/v3.01/bin/bin/../../lib/gcc/pic32c/8.3.1/../../../../pic32c/lib/thumb/v7e-m+fp/hard\libc_nano.a(lib_a-__ssputs.o)
 .data          0x00000000        0x0 c:/program files/microchip/xc32/v3.01/bin/bin/../../lib/gcc/pic32c/8.3.1/../../../../pic32c/lib/thumb/v7e-m+fp/hard\libc_nano.a(lib_a-__ssputs.o)
 .bss           0x00000000        0x0 c:/program files/microchip/xc32/v3.01/bin/bin/../../lib/gcc/pic32c/8.3.1/../../../../pic32c/lib/thumb/v7e-m+fp/hard\libc_nano.a(lib_a-__ssputs.o)
 .xc_stack_usage
                0x00000000       0x18 c:/program files/microchip/xc32/v3.01/bin/bin/../../lib/gcc/pic32c/8.3.1/../../../../pic32c/lib/thumb/v7e-m+fp/hard\libc_nano.a(lib_a-__ssputs.o)
 .xc_stack_usage.hdr
                0x00000000        0xe c:/program files/microchip/xc32/v3.01/bin/bin/../../lib/gcc/pic32c/8.3.1/../../../../pic32c/lib/thumb/v7e-m+fp/hard\libc_nano.a(lib_a-__ssputs.o)
 .text          0x00000000        0x0 c:/program files/microchip/xc32/v3.01/bin/bin/../../lib/gcc/pic32c/8.3.1/../../../../pic32c/lib/thumb/v7e-m+fp/hard\libc_nano.a(lib_a-closer.o)
 .data          0x00000000        0x0 c:/program files/microchip/xc32/v3.01/bin/bin/../../lib/gcc/pic32c/8.3.1/../../../../pic32c/lib/thumb/v7e-m+fp/hard\libc_nano.a(lib_a-closer.o)
 .bss           0x00000000        0x0 c:/program files/microchip/xc32/v3.01/bin/bin/../../lib/gcc/pic32c/8.3.1/../../../../pic32c/lib/thumb/v7e-m+fp/hard\libc_nano.a(lib_a-closer.o)
 .xc_stack_usage
                0x00000000       0x16 c:/program files/microchip/xc32/v3.01/bin/bin/../../lib/gcc/pic32c/8.3.1/../../../../pic32c/lib/thumb/v7e-m+fp/hard\libc_nano.a(lib_a-closer.o)
 .text._close_r
                0x00000000       0x20 c:/program files/microchip/xc32/v3.01/bin/bin/../../lib/gcc/pic32c/8.3.1/../../../../pic32c/lib/thumb/v7e-m+fp/hard\libc_nano.a(lib_a-closer.o)
 .xc_stack_usage.hdr
                0x00000000        0xe c:/program files/microchip/xc32/v3.01/bin/bin/../../lib/gcc/pic32c/8.3.1/../../../../pic32c/lib/thumb/v7e-m+fp/hard\libc_nano.a(lib_a-closer.o)
 .comment       0x00000000       0x54 c:/program files/microchip/xc32/v3.01/bin/bin/../../lib/gcc/pic32c/8.3.1/../../../../pic32c/lib/thumb/v7e-m+fp/hard\libc_nano.a(lib_a-closer.o)
 .ARM.attributes
                0x00000000       0x34 c:/program files/microchip/xc32/v3.01/bin/bin/../../lib/gcc/pic32c/8.3.1/../../../../pic32c/lib/thumb/v7e-m+fp/hard\libc_nano.a(lib_a-closer.o)
 .text          0x00000000        0x0 c:/program files/microchip/xc32/v3.01/bin/bin/../../lib/gcc/pic32c/8.3.1/../../../../pic32c/lib/thumb/v7e-m+fp/hard\libc_nano.a(lib_a-ctype_.o)
 .data          0x00000000        0x0 c:/program files/microchip/xc32/v3.01/bin/bin/../../lib/gcc/pic32c/8.3.1/../../../../pic32c/lib/thumb/v7e-m+fp/hard\libc_nano.a(lib_a-ctype_.o)
 .bss           0x00000000        0x0 c:/program files/microchip/xc32/v3.01/bin/bin/../../lib/gcc/pic32c/8.3.1/../../../../pic32c/lib/thumb/v7e-m+fp/hard\libc_nano.a(lib_a-ctype_.o)
 .xc_stack_usage.hdr
                0x00000000        0xe c:/program files/microchip/xc32/v3.01/bin/bin/../../lib/gcc/pic32c/8.3.1/../../../../pic32c/lib/thumb/v7e-m+fp/hard\libc_nano.a(lib_a-ctype_.o)
 .text          0x00000000        0x0 c:/program files/microchip/xc32/v3.01/bin/bin/../../lib/gcc/pic32c/8.3.1/../../../../pic32c/lib/thumb/v7e-m+fp/hard\libc_nano.a(lib_a-dtoa.o)
 .data          0x00000000        0x0 c:/program files/microchip/xc32/v3.01/bin/bin/../../lib/gcc/pic32c/8.3.1/../../../../pic32c/lib/thumb/v7e-m+fp/hard\libc_nano.a(lib_a-dtoa.o)
 .bss           0x00000000        0x0 c:/program files/microchip/xc32/v3.01/bin/bin/../../lib/gcc/pic32c/8.3.1/../../../../pic32c/lib/thumb/v7e-m+fp/hard\libc_nano.a(lib_a-dtoa.o)
 .xc_stack_usage
                0x00000000       0x29 c:/program files/microchip/xc32/v3.01/bin/bin/../../lib/gcc/pic32c/8.3.1/../../../../pic32c/lib/thumb/v7e-m+fp/hard\libc_nano.a(lib_a-dtoa.o)
 .xc_stack_usage.hdr
                0x00000000        0xe c:/program files/microchip/xc32/v3.01/bin/bin/../../lib/gcc/pic32c/8.3.1/../../../../pic32c/lib/thumb/v7e-m+fp/hard\libc_nano.a(lib_a-dtoa.o)
 .text          0x00000000        0x0 c:/program files/microchip/xc32/v3.01/bin/bin/../../lib/gcc/pic32c/8.3.1/../../../../pic32c/lib/thumb/v7e-m+fp/hard\libc_nano.a(lib_a-environ.o)
 .data          0x00000000        0x0 c:/program files/microchip/xc32/v3.01/bin/bin/../../lib/gcc/pic32c/8.3.1/../../../../pic32c/lib/thumb/v7e-m+fp/hard\libc_nano.a(lib_a-environ.o)
 .bss           0x00000000        0x0 c:/program files/microchip/xc32/v3.01/bin/bin/../../lib/gcc/pic32c/8.3.1/../../../../pic32c/lib/thumb/v7e-m+fp/hard\libc_nano.a(lib_a-environ.o)
 .xc_stack_usage.hdr
                0x00000000        0xe c:/program files/microchip/xc32/v3.01/bin/bin/../../lib/gcc/pic32c/8.3.1/../../../../pic32c/lib/thumb/v7e-m+fp/hard\libc_nano.a(lib_a-environ.o)
 .text          0x00000000        0x0 c:/program files/microchip/xc32/v3.01/bin/bin/../../lib/gcc/pic32c/8.3.1/../../../../pic32c/lib/thumb/v7e-m+fp/hard\libc_nano.a(lib_a-envlock.o)
 .data          0x00000000        0x0 c:/program files/microchip/xc32/v3.01/bin/bin/../../lib/gcc/pic32c/8.3.1/../../../../pic32c/lib/thumb/v7e-m+fp/hard\libc_nano.a(lib_a-envlock.o)
 .bss           0x00000000        0x0 c:/program files/microchip/xc32/v3.01/bin/bin/../../lib/gcc/pic32c/8.3.1/../../../../pic32c/lib/thumb/v7e-m+fp/hard\libc_nano.a(lib_a-envlock.o)
 .xc_stack_usage
                0x00000000       0x32 c:/program files/microchip/xc32/v3.01/bin/bin/../../lib/gcc/pic32c/8.3.1/../../../../pic32c/lib/thumb/v7e-m+fp/hard\libc_nano.a(lib_a-envlock.o)
 .xc_stack_usage.hdr
                0x00000000        0xe c:/program files/microchip/xc32/v3.01/bin/bin/../../lib/gcc/pic32c/8.3.1/../../../../pic32c/lib/thumb/v7e-m+fp/hard\libc_nano.a(lib_a-envlock.o)
 .text          0x00000000        0x0 c:/program files/microchip/xc32/v3.01/bin/bin/../../lib/gcc/pic32c/8.3.1/../../../../pic32c/lib/thumb/v7e-m+fp/hard\libc_nano.a(lib_a-localeconv.o)
 .data          0x00000000        0x0 c:/program files/microchip/xc32/v3.01/bin/bin/../../lib/gcc/pic32c/8.3.1/../../../../pic32c/lib/thumb/v7e-m+fp/hard\libc_nano.a(lib_a-localeconv.o)
 .bss           0x00000000        0x0 c:/program files/microchip/xc32/v3.01/bin/bin/../../lib/gcc/pic32c/8.3.1/../../../../pic32c/lib/thumb/v7e-m+fp/hard\libc_nano.a(lib_a-localeconv.o)
 .xc_stack_usage
                0x00000000       0x4f c:/program files/microchip/xc32/v3.01/bin/bin/../../lib/gcc/pic32c/8.3.1/../../../../pic32c/lib/thumb/v7e-m+fp/hard\libc_nano.a(lib_a-localeconv.o)
 .text.__localeconv_l
                0x00000000        0x4 c:/program files/microchip/xc32/v3.01/bin/bin/../../lib/gcc/pic32c/8.3.1/../../../../pic32c/lib/thumb/v7e-m+fp/hard\libc_nano.a(lib_a-localeconv.o)
 .text.localeconv
                0x00000000        0x8 c:/program files/microchip/xc32/v3.01/bin/bin/../../lib/gcc/pic32c/8.3.1/../../../../pic32c/lib/thumb/v7e-m+fp/hard\libc_nano.a(lib_a-localeconv.o)
 .xc_stack_usage.hdr
                0x00000000        0xe c:/program files/microchip/xc32/v3.01/bin/bin/../../lib/gcc/pic32c/8.3.1/../../../../pic32c/lib/thumb/v7e-m+fp/hard\libc_nano.a(lib_a-localeconv.o)
 .text          0x00000000        0x0 c:/program files/microchip/xc32/v3.01/bin/bin/../../lib/gcc/pic32c/8.3.1/../../../../pic32c/lib/thumb/v7e-m+fp/hard\libc_nano.a(lib_a-lseekr.o)
 .data          0x00000000        0x0 c:/program files/microchip/xc32/v3.01/bin/bin/../../lib/gcc/pic32c/8.3.1/../../../../pic32c/lib/thumb/v7e-m+fp/hard\libc_nano.a(lib_a-lseekr.o)
 .bss           0x00000000        0x0 c:/program files/microchip/xc32/v3.01/bin/bin/../../lib/gcc/pic32c/8.3.1/../../../../pic32c/lib/thumb/v7e-m+fp/hard\libc_nano.a(lib_a-lseekr.o)
 .xc_stack_usage
                0x00000000       0x16 c:/program files/microchip/xc32/v3.01/bin/bin/../../lib/gcc/pic32c/8.3.1/../../../../pic32c/lib/thumb/v7e-m+fp/hard\libc_nano.a(lib_a-lseekr.o)
 .text._lseek_r
                0x00000000       0x24 c:/program files/microchip/xc32/v3.01/bin/bin/../../lib/gcc/pic32c/8.3.1/../../../../pic32c/lib/thumb/v7e-m+fp/hard\libc_nano.a(lib_a-lseekr.o)
 .xc_stack_usage.hdr
                0x00000000        0xe c:/program files/microchip/xc32/v3.01/bin/bin/../../lib/gcc/pic32c/8.3.1/../../../../pic32c/lib/thumb/v7e-m+fp/hard\libc_nano.a(lib_a-lseekr.o)
 .comment       0x00000000       0x54 c:/program files/microchip/xc32/v3.01/bin/bin/../../lib/gcc/pic32c/8.3.1/../../../../pic32c/lib/thumb/v7e-m+fp/hard\libc_nano.a(lib_a-lseekr.o)
 .ARM.attributes
                0x00000000       0x34 c:/program files/microchip/xc32/v3.01/bin/bin/../../lib/gcc/pic32c/8.3.1/../../../../pic32c/lib/thumb/v7e-m+fp/hard\libc_nano.a(lib_a-lseekr.o)
 .data          0x00000000        0x0 c:/program files/microchip/xc32/v3.01/bin/bin/../../lib/gcc/pic32c/8.3.1/../../../../pic32c/lib/thumb/v7e-m+fp/hard\libc_nano.a(lib_a-memchr.o)
 .bss           0x00000000        0x0 c:/program files/microchip/xc32/v3.01/bin/bin/../../lib/gcc/pic32c/8.3.1/../../../../pic32c/lib/thumb/v7e-m+fp/hard\libc_nano.a(lib_a-memchr.o)
 .xc_stack_usage.hdr
                0x00000000        0xe c:/program files/microchip/xc32/v3.01/bin/bin/../../lib/gcc/pic32c/8.3.1/../../../../pic32c/lib/thumb/v7e-m+fp/hard\libc_nano.a(lib_a-memchr.o)
 .xc_stack_usage
                0x00000000       0x14 c:/program files/microchip/xc32/v3.01/bin/bin/../../lib/gcc/pic32c/8.3.1/../../../../pic32c/lib/thumb/v7e-m+fp/hard\libc_nano.a(lib_a-memchr.o)
 .text          0x00000000        0x0 c:/program files/microchip/xc32/v3.01/bin/bin/../../lib/gcc/pic32c/8.3.1/../../../../pic32c/lib/thumb/v7e-m+fp/hard\libc_nano.a(lib_a-memmove.o)
 .data          0x00000000        0x0 c:/program files/microchip/xc32/v3.01/bin/bin/../../lib/gcc/pic32c/8.3.1/../../../../pic32c/lib/thumb/v7e-m+fp/hard\libc_nano.a(lib_a-memmove.o)
 .bss           0x00000000        0x0 c:/program files/microchip/xc32/v3.01/bin/bin/../../lib/gcc/pic32c/8.3.1/../../../../pic32c/lib/thumb/v7e-m+fp/hard\libc_nano.a(lib_a-memmove.o)
 .xc_stack_usage
                0x00000000       0x15 c:/program files/microchip/xc32/v3.01/bin/bin/../../lib/gcc/pic32c/8.3.1/../../../../pic32c/lib/thumb/v7e-m+fp/hard\libc_nano.a(lib_a-memmove.o)
 .xc_stack_usage.hdr
                0x00000000        0xe c:/program files/microchip/xc32/v3.01/bin/bin/../../lib/gcc/pic32c/8.3.1/../../../../pic32c/lib/thumb/v7e-m+fp/hard\libc_nano.a(lib_a-memmove.o)
 .text          0x00000000        0x0 c:/program files/microchip/xc32/v3.01/bin/bin/../../lib/gcc/pic32c/8.3.1/../../../../pic32c/lib/thumb/v7e-m+fp/hard\libc_nano.a(lib_a-mprec.o)
 .data          0x00000000        0x0 c:/program files/microchip/xc32/v3.01/bin/bin/../../lib/gcc/pic32c/8.3.1/../../../../pic32c/lib/thumb/v7e-m+fp/hard\libc_nano.a(lib_a-mprec.o)
 .bss           0x00000000        0x0 c:/program files/microchip/xc32/v3.01/bin/bin/../../lib/gcc/pic32c/8.3.1/../../../../pic32c/lib/thumb/v7e-m+fp/hard\libc_nano.a(lib_a-mprec.o)
 .xc_stack_usage
                0x00000000      0x199 c:/program files/microchip/xc32/v3.01/bin/bin/../../lib/gcc/pic32c/8.3.1/../../../../pic32c/lib/thumb/v7e-m+fp/hard\libc_nano.a(lib_a-mprec.o)
 .text.__s2b    0x00000000       0x7c c:/program files/microchip/xc32/v3.01/bin/bin/../../lib/gcc/pic32c/8.3.1/../../../../pic32c/lib/thumb/v7e-m+fp/hard\libc_nano.a(lib_a-mprec.o)
 .text.__ulp    0x00000000       0x4c c:/program files/microchip/xc32/v3.01/bin/bin/../../lib/gcc/pic32c/8.3.1/../../../../pic32c/lib/thumb/v7e-m+fp/hard\libc_nano.a(lib_a-mprec.o)
 .text.__b2d    0x00000000       0xa0 c:/program files/microchip/xc32/v3.01/bin/bin/../../lib/gcc/pic32c/8.3.1/../../../../pic32c/lib/thumb/v7e-m+fp/hard\libc_nano.a(lib_a-mprec.o)
 .text.__ratio  0x00000000       0x62 c:/program files/microchip/xc32/v3.01/bin/bin/../../lib/gcc/pic32c/8.3.1/../../../../pic32c/lib/thumb/v7e-m+fp/hard\libc_nano.a(lib_a-mprec.o)
 .text._mprec_log10
                0x00000000       0x3c c:/program files/microchip/xc32/v3.01/bin/bin/../../lib/gcc/pic32c/8.3.1/../../../../pic32c/lib/thumb/v7e-m+fp/hard\libc_nano.a(lib_a-mprec.o)
 .text.__copybits
                0x00000000       0x34 c:/program files/microchip/xc32/v3.01/bin/bin/../../lib/gcc/pic32c/8.3.1/../../../../pic32c/lib/thumb/v7e-m+fp/hard\libc_nano.a(lib_a-mprec.o)
 .text.__any_on
                0x00000000       0x42 c:/program files/microchip/xc32/v3.01/bin/bin/../../lib/gcc/pic32c/8.3.1/../../../../pic32c/lib/thumb/v7e-m+fp/hard\libc_nano.a(lib_a-mprec.o)
 .rodata.__mprec_tinytens
                0x00000000       0x28 c:/program files/microchip/xc32/v3.01/bin/bin/../../lib/gcc/pic32c/8.3.1/../../../../pic32c/lib/thumb/v7e-m+fp/hard\libc_nano.a(lib_a-mprec.o)
 .xc_stack_usage.hdr
                0x00000000        0xe c:/program files/microchip/xc32/v3.01/bin/bin/../../lib/gcc/pic32c/8.3.1/../../../../pic32c/lib/thumb/v7e-m+fp/hard\libc_nano.a(lib_a-mprec.o)
 .text          0x00000000        0x0 c:/program files/microchip/xc32/v3.01/bin/bin/../../lib/gcc/pic32c/8.3.1/../../../../pic32c/lib/thumb/v7e-m+fp/hard\libc_nano.a(lib_a-nano-callocr.o)
 .data          0x00000000        0x0 c:/program files/microchip/xc32/v3.01/bin/bin/../../lib/gcc/pic32c/8.3.1/../../../../pic32c/lib/thumb/v7e-m+fp/hard\libc_nano.a(lib_a-nano-callocr.o)
 .bss           0x00000000        0x0 c:/program files/microchip/xc32/v3.01/bin/bin/../../lib/gcc/pic32c/8.3.1/../../../../pic32c/lib/thumb/v7e-m+fp/hard\libc_nano.a(lib_a-nano-callocr.o)
 .xc_stack_usage
                0x00000000       0x17 c:/program files/microchip/xc32/v3.01/bin/bin/../../lib/gcc/pic32c/8.3.1/../../../../pic32c/lib/thumb/v7e-m+fp/hard\libc_nano.a(lib_a-nano-callocr.o)
 .xc_stack_usage.hdr
                0x00000000        0xe c:/program files/microchip/xc32/v3.01/bin/bin/../../lib/gcc/pic32c/8.3.1/../../../../pic32c/lib/thumb/v7e-m+fp/hard\libc_nano.a(lib_a-nano-callocr.o)
 .text          0x00000000        0x0 c:/program files/microchip/xc32/v3.01/bin/bin/../../lib/gcc/pic32c/8.3.1/../../../../pic32c/lib/thumb/v7e-m+fp/hard\libc_nano.a(lib_a-nano-reallocr.o)
 .data          0x00000000        0x0 c:/program files/microchip/xc32/v3.01/bin/bin/../../lib/gcc/pic32c/8.3.1/../../../../pic32c/lib/thumb/v7e-m+fp/hard\libc_nano.a(lib_a-nano-reallocr.o)
 .bss           0x00000000        0x0 c:/program files/microchip/xc32/v3.01/bin/bin/../../lib/gcc/pic32c/8.3.1/../../../../pic32c/lib/thumb/v7e-m+fp/hard\libc_nano.a(lib_a-nano-reallocr.o)
 .xc_stack_usage
                0x00000000       0x18 c:/program files/microchip/xc32/v3.01/bin/bin/../../lib/gcc/pic32c/8.3.1/../../../../pic32c/lib/thumb/v7e-m+fp/hard\libc_nano.a(lib_a-nano-reallocr.o)
 .xc_stack_usage.hdr
                0x00000000        0xe c:/program files/microchip/xc32/v3.01/bin/bin/../../lib/gcc/pic32c/8.3.1/../../../../pic32c/lib/thumb/v7e-m+fp/hard\libc_nano.a(lib_a-nano-reallocr.o)
 .text          0x00000000        0x0 c:/program files/microchip/xc32/v3.01/bin/bin/../../lib/gcc/pic32c/8.3.1/../../../../pic32c/lib/thumb/v7e-m+fp/hard\libc_nano.a(lib_a-nano-svfscanf.o)
 .data          0x00000000        0x0 c:/program files/microchip/xc32/v3.01/bin/bin/../../lib/gcc/pic32c/8.3.1/../../../../pic32c/lib/thumb/v7e-m+fp/hard\libc_nano.a(lib_a-nano-svfscanf.o)
 .bss           0x00000000        0x0 c:/program files/microchip/xc32/v3.01/bin/bin/../../lib/gcc/pic32c/8.3.1/../../../../pic32c/lib/thumb/v7e-m+fp/hard\libc_nano.a(lib_a-nano-svfscanf.o)
 .xc_stack_usage
                0x00000000       0x4d c:/program files/microchip/xc32/v3.01/bin/bin/../../lib/gcc/pic32c/8.3.1/../../../../pic32c/lib/thumb/v7e-m+fp/hard\libc_nano.a(lib_a-nano-svfscanf.o)
 .xc_stack_usage.hdr
                0x00000000        0xe c:/program files/microchip/xc32/v3.01/bin/bin/../../lib/gcc/pic32c/8.3.1/../../../../pic32c/lib/thumb/v7e-m+fp/hard\libc_nano.a(lib_a-nano-svfscanf.o)
 .text          0x00000000        0x0 c:/program files/microchip/xc32/v3.01/bin/bin/../../lib/gcc/pic32c/8.3.1/../../../../pic32c/lib/thumb/v7e-m+fp/hard\libc_nano.a(lib_a-nano-vfscanf_i.o)
 .data          0x00000000        0x0 c:/program files/microchip/xc32/v3.01/bin/bin/../../lib/gcc/pic32c/8.3.1/../../../../pic32c/lib/thumb/v7e-m+fp/hard\libc_nano.a(lib_a-nano-vfscanf_i.o)
 .bss           0x00000000        0x0 c:/program files/microchip/xc32/v3.01/bin/bin/../../lib/gcc/pic32c/8.3.1/../../../../pic32c/lib/thumb/v7e-m+fp/hard\libc_nano.a(lib_a-nano-vfscanf_i.o)
 .xc_stack_usage
                0x00000000       0x30 c:/program files/microchip/xc32/v3.01/bin/bin/../../lib/gcc/pic32c/8.3.1/../../../../pic32c/lib/thumb/v7e-m+fp/hard\libc_nano.a(lib_a-nano-vfscanf_i.o)
 .xc_stack_usage.hdr
                0x00000000        0xe c:/program files/microchip/xc32/v3.01/bin/bin/../../lib/gcc/pic32c/8.3.1/../../../../pic32c/lib/thumb/v7e-m+fp/hard\libc_nano.a(lib_a-nano-vfscanf_i.o)
 .text          0x00000000        0x0 c:/program files/microchip/xc32/v3.01/bin/bin/../../lib/gcc/pic32c/8.3.1/../../../../pic32c/lib/thumb/v7e-m+fp/hard\libc_nano.a(lib_a-readr.o)
 .data          0x00000000        0x0 c:/program files/microchip/xc32/v3.01/bin/bin/../../lib/gcc/pic32c/8.3.1/../../../../pic32c/lib/thumb/v7e-m+fp/hard\libc_nano.a(lib_a-readr.o)
 .bss           0x00000000        0x0 c:/program files/microchip/xc32/v3.01/bin/bin/../../lib/gcc/pic32c/8.3.1/../../../../pic32c/lib/thumb/v7e-m+fp/hard\libc_nano.a(lib_a-readr.o)
 .xc_stack_usage
                0x00000000       0x15 c:/program files/microchip/xc32/v3.01/bin/bin/../../lib/gcc/pic32c/8.3.1/../../../../pic32c/lib/thumb/v7e-m+fp/hard\libc_nano.a(lib_a-readr.o)
 .text._read_r  0x00000000       0x24 c:/program files/microchip/xc32/v3.01/bin/bin/../../lib/gcc/pic32c/8.3.1/../../../../pic32c/lib/thumb/v7e-m+fp/hard\libc_nano.a(lib_a-readr.o)
 .xc_stack_usage.hdr
                0x00000000        0xe c:/program files/microchip/xc32/v3.01/bin/bin/../../lib/gcc/pic32c/8.3.1/../../../../pic32c/lib/thumb/v7e-m+fp/hard\libc_nano.a(lib_a-readr.o)
 .comment       0x00000000       0x54 c:/program files/microchip/xc32/v3.01/bin/bin/../../lib/gcc/pic32c/8.3.1/../../../../pic32c/lib/thumb/v7e-m+fp/hard\libc_nano.a(lib_a-readr.o)
 .ARM.attributes
                0x00000000       0x34 c:/program files/microchip/xc32/v3.01/bin/bin/../../lib/gcc/pic32c/8.3.1/../../../../pic32c/lib/thumb/v7e-m+fp/hard\libc_nano.a(lib_a-readr.o)
 .text          0x00000000        0x0 c:/program files/microchip/xc32/v3.01/bin/bin/../../lib/gcc/pic32c/8.3.1/../../../../pic32c/lib/thumb/v7e-m+fp/hard\libc_nano.a(lib_a-sccl.o)
 .data          0x00000000        0x0 c:/program files/microchip/xc32/v3.01/bin/bin/../../lib/gcc/pic32c/8.3.1/../../../../pic32c/lib/thumb/v7e-m+fp/hard\libc_nano.a(lib_a-sccl.o)
 .bss           0x00000000        0x0 c:/program files/microchip/xc32/v3.01/bin/bin/../../lib/gcc/pic32c/8.3.1/../../../../pic32c/lib/thumb/v7e-m+fp/hard\libc_nano.a(lib_a-sccl.o)
 .xc_stack_usage
                0x00000000       0x14 c:/program files/microchip/xc32/v3.01/bin/bin/../../lib/gcc/pic32c/8.3.1/../../../../pic32c/lib/thumb/v7e-m+fp/hard\libc_nano.a(lib_a-sccl.o)
 .xc_stack_usage.hdr
                0x00000000        0xe c:/program files/microchip/xc32/v3.01/bin/bin/../../lib/gcc/pic32c/8.3.1/../../../../pic32c/lib/thumb/v7e-m+fp/hard\libc_nano.a(lib_a-sccl.o)
 .text          0x00000000        0x0 c:/program files/microchip/xc32/v3.01/bin/bin/../../lib/gcc/pic32c/8.3.1/../../../../pic32c/lib/thumb/v7e-m+fp/hard\libc_nano.a(lib_a-strtol.o)
 .data          0x00000000        0x0 c:/program files/microchip/xc32/v3.01/bin/bin/../../lib/gcc/pic32c/8.3.1/../../../../pic32c/lib/thumb/v7e-m+fp/hard\libc_nano.a(lib_a-strtol.o)
 .bss           0x00000000        0x0 c:/program files/microchip/xc32/v3.01/bin/bin/../../lib/gcc/pic32c/8.3.1/../../../../pic32c/lib/thumb/v7e-m+fp/hard\libc_nano.a(lib_a-strtol.o)
 .xc_stack_usage
                0x00000000       0x5f c:/program files/microchip/xc32/v3.01/bin/bin/../../lib/gcc/pic32c/8.3.1/../../../../pic32c/lib/thumb/v7e-m+fp/hard\libc_nano.a(lib_a-strtol.o)
 .text.strtol_l
                0x00000000       0x14 c:/program files/microchip/xc32/v3.01/bin/bin/../../lib/gcc/pic32c/8.3.1/../../../../pic32c/lib/thumb/v7e-m+fp/hard\libc_nano.a(lib_a-strtol.o)
 .text.strtol   0x00000000       0x14 c:/program files/microchip/xc32/v3.01/bin/bin/../../lib/gcc/pic32c/8.3.1/../../../../pic32c/lib/thumb/v7e-m+fp/hard\libc_nano.a(lib_a-strtol.o)
 .xc_stack_usage.hdr
                0x00000000        0xe c:/program files/microchip/xc32/v3.01/bin/bin/../../lib/gcc/pic32c/8.3.1/../../../../pic32c/lib/thumb/v7e-m+fp/hard\libc_nano.a(lib_a-strtol.o)
 .text          0x00000000        0x0 c:/program files/microchip/xc32/v3.01/bin/bin/../../lib/gcc/pic32c/8.3.1/../../../../pic32c/lib/thumb/v7e-m+fp/hard\libc_nano.a(lib_a-ungetc.o)
 .data          0x00000000        0x0 c:/program files/microchip/xc32/v3.01/bin/bin/../../lib/gcc/pic32c/8.3.1/../../../../pic32c/lib/thumb/v7e-m+fp/hard\libc_nano.a(lib_a-ungetc.o)
 .bss           0x00000000        0x0 c:/program files/microchip/xc32/v3.01/bin/bin/../../lib/gcc/pic32c/8.3.1/../../../../pic32c/lib/thumb/v7e-m+fp/hard\libc_nano.a(lib_a-ungetc.o)
 .xc_stack_usage
                0x00000000       0x42 c:/program files/microchip/xc32/v3.01/bin/bin/../../lib/gcc/pic32c/8.3.1/../../../../pic32c/lib/thumb/v7e-m+fp/hard\libc_nano.a(lib_a-ungetc.o)
 .text._ungetc_r
                0x00000000       0xf8 c:/program files/microchip/xc32/v3.01/bin/bin/../../lib/gcc/pic32c/8.3.1/../../../../pic32c/lib/thumb/v7e-m+fp/hard\libc_nano.a(lib_a-ungetc.o)
 .text.ungetc   0x00000000       0x10 c:/program files/microchip/xc32/v3.01/bin/bin/../../lib/gcc/pic32c/8.3.1/../../../../pic32c/lib/thumb/v7e-m+fp/hard\libc_nano.a(lib_a-ungetc.o)
 .xc_stack_usage.hdr
                0x00000000        0xe c:/program files/microchip/xc32/v3.01/bin/bin/../../lib/gcc/pic32c/8.3.1/../../../../pic32c/lib/thumb/v7e-m+fp/hard\libc_nano.a(lib_a-ungetc.o)
 .text          0x00000000        0x0 c:/program files/microchip/xc32/v3.01/bin/bin/../../lib/gcc/pic32c/8.3.1/../../../../pic32c/lib/thumb/v7e-m+fp/hard\libc_nano.a(lib_a-fflush.o)
 .data          0x00000000        0x0 c:/program files/microchip/xc32/v3.01/bin/bin/../../lib/gcc/pic32c/8.3.1/../../../../pic32c/lib/thumb/v7e-m+fp/hard\libc_nano.a(lib_a-fflush.o)
 .bss           0x00000000        0x0 c:/program files/microchip/xc32/v3.01/bin/bin/../../lib/gcc/pic32c/8.3.1/../../../../pic32c/lib/thumb/v7e-m+fp/hard\libc_nano.a(lib_a-fflush.o)
 .xc_stack_usage
                0x00000000       0x43 c:/program files/microchip/xc32/v3.01/bin/bin/../../lib/gcc/pic32c/8.3.1/../../../../pic32c/lib/thumb/v7e-m+fp/hard\libc_nano.a(lib_a-fflush.o)
 .text.__sflush_r
                0x00000000      0x10c c:/program files/microchip/xc32/v3.01/bin/bin/../../lib/gcc/pic32c/8.3.1/../../../../pic32c/lib/thumb/v7e-m+fp/hard\libc_nano.a(lib_a-fflush.o)
 .text._fflush_r
                0x00000000       0x54 c:/program files/microchip/xc32/v3.01/bin/bin/../../lib/gcc/pic32c/8.3.1/../../../../pic32c/lib/thumb/v7e-m+fp/hard\libc_nano.a(lib_a-fflush.o)
 .text.fflush   0x00000000       0x24 c:/program files/microchip/xc32/v3.01/bin/bin/../../lib/gcc/pic32c/8.3.1/../../../../pic32c/lib/thumb/v7e-m+fp/hard\libc_nano.a(lib_a-fflush.o)
 .xc_stack_usage.hdr
                0x00000000        0xe c:/program files/microchip/xc32/v3.01/bin/bin/../../lib/gcc/pic32c/8.3.1/../../../../pic32c/lib/thumb/v7e-m+fp/hard\libc_nano.a(lib_a-fflush.o)
 .comment       0x00000000       0x54 c:/program files/microchip/xc32/v3.01/bin/bin/../../lib/gcc/pic32c/8.3.1/../../../../pic32c/lib/thumb/v7e-m+fp/hard\libc_nano.a(lib_a-fflush.o)
 .ARM.attributes
                0x00000000       0x34 c:/program files/microchip/xc32/v3.01/bin/bin/../../lib/gcc/pic32c/8.3.1/../../../../pic32c/lib/thumb/v7e-m+fp/hard\libc_nano.a(lib_a-fflush.o)
 .text          0x00000000        0x0 c:/program files/microchip/xc32/v3.01/bin/bin/../../lib/gcc/pic32c/8.3.1/../../../../pic32c/lib/thumb/v7e-m+fp/hard\libc_nano.a(lib_a-findfp.o)
 .data          0x00000000        0x0 c:/program files/microchip/xc32/v3.01/bin/bin/../../lib/gcc/pic32c/8.3.1/../../../../pic32c/lib/thumb/v7e-m+fp/hard\libc_nano.a(lib_a-findfp.o)
 .bss           0x00000000        0x0 c:/program files/microchip/xc32/v3.01/bin/bin/../../lib/gcc/pic32c/8.3.1/../../../../pic32c/lib/thumb/v7e-m+fp/hard\libc_nano.a(lib_a-findfp.o)
 .xc_stack_usage
                0x00000000       0x81 c:/program files/microchip/xc32/v3.01/bin/bin/../../lib/gcc/pic32c/8.3.1/../../../../pic32c/lib/thumb/v7e-m+fp/hard\libc_nano.a(lib_a-findfp.o)
 .text.std      0x00000000       0x48 c:/program files/microchip/xc32/v3.01/bin/bin/../../lib/gcc/pic32c/8.3.1/../../../../pic32c/lib/thumb/v7e-m+fp/hard\libc_nano.a(lib_a-findfp.o)
 .text._cleanup_r
                0x00000000        0xc c:/program files/microchip/xc32/v3.01/bin/bin/../../lib/gcc/pic32c/8.3.1/../../../../pic32c/lib/thumb/v7e-m+fp/hard\libc_nano.a(lib_a-findfp.o)
 .text.__sfmoreglue
                0x00000000       0x2c c:/program files/microchip/xc32/v3.01/bin/bin/../../lib/gcc/pic32c/8.3.1/../../../../pic32c/lib/thumb/v7e-m+fp/hard\libc_nano.a(lib_a-findfp.o)
 .text._cleanup
                0x00000000        0xc c:/program files/microchip/xc32/v3.01/bin/bin/../../lib/gcc/pic32c/8.3.1/../../../../pic32c/lib/thumb/v7e-m+fp/hard\libc_nano.a(lib_a-findfp.o)
 .text.__sinit  0x00000000       0x60 c:/program files/microchip/xc32/v3.01/bin/bin/../../lib/gcc/pic32c/8.3.1/../../../../pic32c/lib/thumb/v7e-m+fp/hard\libc_nano.a(lib_a-findfp.o)
 .text.__sfp    0x00000000       0x78 c:/program files/microchip/xc32/v3.01/bin/bin/../../lib/gcc/pic32c/8.3.1/../../../../pic32c/lib/thumb/v7e-m+fp/hard\libc_nano.a(lib_a-findfp.o)
 .xc_stack_usage.hdr
                0x00000000        0xe c:/program files/microchip/xc32/v3.01/bin/bin/../../lib/gcc/pic32c/8.3.1/../../../../pic32c/lib/thumb/v7e-m+fp/hard\libc_nano.a(lib_a-findfp.o)
 .text          0x00000000        0x0 c:/program files/microchip/xc32/v3.01/bin/bin/../../lib/gcc/pic32c/8.3.1/../../../../pic32c/lib/thumb/v7e-m+fp/hard\libc_nano.a(lib_a-fwalk.o)
 .data          0x00000000        0x0 c:/program files/microchip/xc32/v3.01/bin/bin/../../lib/gcc/pic32c/8.3.1/../../../../pic32c/lib/thumb/v7e-m+fp/hard\libc_nano.a(lib_a-fwalk.o)
 .bss           0x00000000        0x0 c:/program files/microchip/xc32/v3.01/bin/bin/../../lib/gcc/pic32c/8.3.1/../../../../pic32c/lib/thumb/v7e-m+fp/hard\libc_nano.a(lib_a-fwalk.o)
 .xc_stack_usage
                0x00000000       0x2e c:/program files/microchip/xc32/v3.01/bin/bin/../../lib/gcc/pic32c/8.3.1/../../../../pic32c/lib/thumb/v7e-m+fp/hard\libc_nano.a(lib_a-fwalk.o)
 .text._fwalk   0x00000000       0x38 c:/program files/microchip/xc32/v3.01/bin/bin/../../lib/gcc/pic32c/8.3.1/../../../../pic32c/lib/thumb/v7e-m+fp/hard\libc_nano.a(lib_a-fwalk.o)
 .text._fwalk_reent
                0x00000000       0x3c c:/program files/microchip/xc32/v3.01/bin/bin/../../lib/gcc/pic32c/8.3.1/../../../../pic32c/lib/thumb/v7e-m+fp/hard\libc_nano.a(lib_a-fwalk.o)
 .xc_stack_usage.hdr
                0x00000000        0xe c:/program files/microchip/xc32/v3.01/bin/bin/../../lib/gcc/pic32c/8.3.1/../../../../pic32c/lib/thumb/v7e-m+fp/hard\libc_nano.a(lib_a-fwalk.o)
 .comment       0x00000000       0x54 c:/program files/microchip/xc32/v3.01/bin/bin/../../lib/gcc/pic32c/8.3.1/../../../../pic32c/lib/thumb/v7e-m+fp/hard\libc_nano.a(lib_a-fwalk.o)
 .ARM.attributes
                0x00000000       0x34 c:/program files/microchip/xc32/v3.01/bin/bin/../../lib/gcc/pic32c/8.3.1/../../../../pic32c/lib/thumb/v7e-m+fp/hard\libc_nano.a(lib_a-fwalk.o)
 .text          0x00000000        0x0 c:/program files/microchip/xc32/v3.01/bin/bin/../../lib/gcc/pic32c/8.3.1/../../../../pic32c/lib/thumb/v7e-m+fp/hard\libc_nano.a(lib_a-locale.o)
 .data          0x00000000        0x0 c:/program files/microchip/xc32/v3.01/bin/bin/../../lib/gcc/pic32c/8.3.1/../../../../pic32c/lib/thumb/v7e-m+fp/hard\libc_nano.a(lib_a-locale.o)
 .bss           0x00000000        0x0 c:/program files/microchip/xc32/v3.01/bin/bin/../../lib/gcc/pic32c/8.3.1/../../../../pic32c/lib/thumb/v7e-m+fp/hard\libc_nano.a(lib_a-locale.o)
 .xc_stack_usage
                0x00000000       0x52 c:/program files/microchip/xc32/v3.01/bin/bin/../../lib/gcc/pic32c/8.3.1/../../../../pic32c/lib/thumb/v7e-m+fp/hard\libc_nano.a(lib_a-locale.o)
 .text._setlocale_r
                0x00000000       0x40 c:/program files/microchip/xc32/v3.01/bin/bin/../../lib/gcc/pic32c/8.3.1/../../../../pic32c/lib/thumb/v7e-m+fp/hard\libc_nano.a(lib_a-locale.o)
 .text.__locale_mb_cur_max
                0x00000000        0xc c:/program files/microchip/xc32/v3.01/bin/bin/../../lib/gcc/pic32c/8.3.1/../../../../pic32c/lib/thumb/v7e-m+fp/hard\libc_nano.a(lib_a-locale.o)
 .text.setlocale
                0x00000000       0x10 c:/program files/microchip/xc32/v3.01/bin/bin/../../lib/gcc/pic32c/8.3.1/../../../../pic32c/lib/thumb/v7e-m+fp/hard\libc_nano.a(lib_a-locale.o)
 .bss._PathLocale
                0x00000000        0x4 c:/program files/microchip/xc32/v3.01/bin/bin/../../lib/gcc/pic32c/8.3.1/../../../../pic32c/lib/thumb/v7e-m+fp/hard\libc_nano.a(lib_a-locale.o)
 .xc_stack_usage.hdr
                0x00000000        0xe c:/program files/microchip/xc32/v3.01/bin/bin/../../lib/gcc/pic32c/8.3.1/../../../../pic32c/lib/thumb/v7e-m+fp/hard\libc_nano.a(lib_a-locale.o)
 .text          0x00000000        0x0 c:/program files/microchip/xc32/v3.01/bin/bin/../../lib/gcc/pic32c/8.3.1/../../../../pic32c/lib/thumb/v7e-m+fp/hard\libc_nano.a(lib_a-mbtowc_r.o)
 .data          0x00000000        0x0 c:/program files/microchip/xc32/v3.01/bin/bin/../../lib/gcc/pic32c/8.3.1/../../../../pic32c/lib/thumb/v7e-m+fp/hard\libc_nano.a(lib_a-mbtowc_r.o)
 .bss           0x00000000        0x0 c:/program files/microchip/xc32/v3.01/bin/bin/../../lib/gcc/pic32c/8.3.1/../../../../pic32c/lib/thumb/v7e-m+fp/hard\libc_nano.a(lib_a-mbtowc_r.o)
 .xc_stack_usage
                0x00000000       0x33 c:/program files/microchip/xc32/v3.01/bin/bin/../../lib/gcc/pic32c/8.3.1/../../../../pic32c/lib/thumb/v7e-m+fp/hard\libc_nano.a(lib_a-mbtowc_r.o)
 .text._mbtowc_r
                0x00000000       0x14 c:/program files/microchip/xc32/v3.01/bin/bin/../../lib/gcc/pic32c/8.3.1/../../../../pic32c/lib/thumb/v7e-m+fp/hard\libc_nano.a(lib_a-mbtowc_r.o)
 .xc_stack_usage.hdr
                0x00000000        0xe c:/program files/microchip/xc32/v3.01/bin/bin/../../lib/gcc/pic32c/8.3.1/../../../../pic32c/lib/thumb/v7e-m+fp/hard\libc_nano.a(lib_a-mbtowc_r.o)
 .text          0x00000000        0x0 c:/program files/microchip/xc32/v3.01/bin/bin/../../lib/gcc/pic32c/8.3.1/../../../../pic32c/lib/thumb/v7e-m+fp/hard\libc_nano.a(lib_a-nano-msizer.o)
 .data          0x00000000        0x0 c:/program files/microchip/xc32/v3.01/bin/bin/../../lib/gcc/pic32c/8.3.1/../../../../pic32c/lib/thumb/v7e-m+fp/hard\libc_nano.a(lib_a-nano-msizer.o)
 .bss           0x00000000        0x0 c:/program files/microchip/xc32/v3.01/bin/bin/../../lib/gcc/pic32c/8.3.1/../../../../pic32c/lib/thumb/v7e-m+fp/hard\libc_nano.a(lib_a-nano-msizer.o)
 .xc_stack_usage
                0x00000000       0x23 c:/program files/microchip/xc32/v3.01/bin/bin/../../lib/gcc/pic32c/8.3.1/../../../../pic32c/lib/thumb/v7e-m+fp/hard\libc_nano.a(lib_a-nano-msizer.o)
 .xc_stack_usage.hdr
                0x00000000        0xe c:/program files/microchip/xc32/v3.01/bin/bin/../../lib/gcc/pic32c/8.3.1/../../../../pic32c/lib/thumb/v7e-m+fp/hard\libc_nano.a(lib_a-nano-msizer.o)
 .text          0x00000000        0x0 c:/program files/microchip/xc32/v3.01/bin/bin/../../lib/gcc/pic32c/8.3.1/../../../../pic32c/lib/thumb/v7e-m+fp/hard\libc_nano.a(lib_a-wctomb_r.o)
 .data          0x00000000        0x0 c:/program files/microchip/xc32/v3.01/bin/bin/../../lib/gcc/pic32c/8.3.1/../../../../pic32c/lib/thumb/v7e-m+fp/hard\libc_nano.a(lib_a-wctomb_r.o)
 .bss           0x00000000        0x0 c:/program files/microchip/xc32/v3.01/bin/bin/../../lib/gcc/pic32c/8.3.1/../../../../pic32c/lib/thumb/v7e-m+fp/hard\libc_nano.a(lib_a-wctomb_r.o)
 .xc_stack_usage
                0x00000000       0x33 c:/program files/microchip/xc32/v3.01/bin/bin/../../lib/gcc/pic32c/8.3.1/../../../../pic32c/lib/thumb/v7e-m+fp/hard\libc_nano.a(lib_a-wctomb_r.o)
 .text._wctomb_r
                0x00000000       0x14 c:/program files/microchip/xc32/v3.01/bin/bin/../../lib/gcc/pic32c/8.3.1/../../../../pic32c/lib/thumb/v7e-m+fp/hard\libc_nano.a(lib_a-wctomb_r.o)
 .xc_stack_usage.hdr
                0x00000000        0xe c:/program files/microchip/xc32/v3.01/bin/bin/../../lib/gcc/pic32c/8.3.1/../../../../pic32c/lib/thumb/v7e-m+fp/hard\libc_nano.a(lib_a-wctomb_r.o)
 .text          0x00000000        0x0 c:/program files/microchip/xc32/v3.01/bin/bin/../../lib/gcc/pic32c/8.3.1/../../../../pic32c/lib/thumb/v7e-m+fp/hard\libpic32c.a(_close.o)
 .data          0x00000000        0x0 c:/program files/microchip/xc32/v3.01/bin/bin/../../lib/gcc/pic32c/8.3.1/../../../../pic32c/lib/thumb/v7e-m+fp/hard\libpic32c.a(_close.o)
 .bss           0x00000000        0x0 c:/program files/microchip/xc32/v3.01/bin/bin/../../lib/gcc/pic32c/8.3.1/../../../../pic32c/lib/thumb/v7e-m+fp/hard\libpic32c.a(_close.o)
 .xc_stack_usage
                0x00000000       0x14 c:/program files/microchip/xc32/v3.01/bin/bin/../../lib/gcc/pic32c/8.3.1/../../../../pic32c/lib/thumb/v7e-m+fp/hard\libpic32c.a(_close.o)
 .text._close   0x00000000        0x4 c:/program files/microchip/xc32/v3.01/bin/bin/../../lib/gcc/pic32c/8.3.1/../../../../pic32c/lib/thumb/v7e-m+fp/hard\libpic32c.a(_close.o)
 .xc_stack_usage.hdr
                0x00000000        0xe c:/program files/microchip/xc32/v3.01/bin/bin/../../lib/gcc/pic32c/8.3.1/../../../../pic32c/lib/thumb/v7e-m+fp/hard\libpic32c.a(_close.o)
 .debug_info    0x00000000      0x2b2 c:/program files/microchip/xc32/v3.01/bin/bin/../../lib/gcc/pic32c/8.3.1/../../../../pic32c/lib/thumb/v7e-m+fp/hard\libpic32c.a(_close.o)
 .debug_abbrev  0x00000000       0x2b c:/program files/microchip/xc32/v3.01/bin/bin/../../lib/gcc/pic32c/8.3.1/../../../../pic32c/lib/thumb/v7e-m+fp/hard\libpic32c.a(_close.o)
 .debug_aranges
                0x00000000       0x20 c:/program files/microchip/xc32/v3.01/bin/bin/../../lib/gcc/pic32c/8.3.1/../../../../pic32c/lib/thumb/v7e-m+fp/hard\libpic32c.a(_close.o)
 .debug_ranges  0x00000000       0x10 c:/program files/microchip/xc32/v3.01/bin/bin/../../lib/gcc/pic32c/8.3.1/../../../../pic32c/lib/thumb/v7e-m+fp/hard\libpic32c.a(_close.o)
 .debug_line    0x00000000       0x9f c:/program files/microchip/xc32/v3.01/bin/bin/../../lib/gcc/pic32c/8.3.1/../../../../pic32c/lib/thumb/v7e-m+fp/hard\libpic32c.a(_close.o)
 .debug_str     0x00000000        0x0 c:/program files/microchip/xc32/v3.01/bin/bin/../../lib/gcc/pic32c/8.3.1/../../../../pic32c/lib/thumb/v7e-m+fp/hard\libpic32c.a(_close.o)
 .comment       0x00000000       0x54 c:/program files/microchip/xc32/v3.01/bin/bin/../../lib/gcc/pic32c/8.3.1/../../../../pic32c/lib/thumb/v7e-m+fp/hard\libpic32c.a(_close.o)
 .debug_frame   0x00000000       0x20 c:/program files/microchip/xc32/v3.01/bin/bin/../../lib/gcc/pic32c/8.3.1/../../../../pic32c/lib/thumb/v7e-m+fp/hard\libpic32c.a(_close.o)
 .ARM.attributes
                0x00000000       0x34 c:/program files/microchip/xc32/v3.01/bin/bin/../../lib/gcc/pic32c/8.3.1/../../../../pic32c/lib/thumb/v7e-m+fp/hard\libpic32c.a(_close.o)
 .text          0x00000000        0x0 c:/program files/microchip/xc32/v3.01/bin/bin/../../lib/gcc/pic32c/8.3.1/../../../../pic32c/lib/thumb/v7e-m+fp/hard\libpic32c.a(_lseek.o)
 .data          0x00000000        0x0 c:/program files/microchip/xc32/v3.01/bin/bin/../../lib/gcc/pic32c/8.3.1/../../../../pic32c/lib/thumb/v7e-m+fp/hard\libpic32c.a(_lseek.o)
 .bss           0x00000000        0x0 c:/program files/microchip/xc32/v3.01/bin/bin/../../lib/gcc/pic32c/8.3.1/../../../../pic32c/lib/thumb/v7e-m+fp/hard\libpic32c.a(_lseek.o)
 .xc_stack_usage
                0x00000000       0x14 c:/program files/microchip/xc32/v3.01/bin/bin/../../lib/gcc/pic32c/8.3.1/../../../../pic32c/lib/thumb/v7e-m+fp/hard\libpic32c.a(_lseek.o)
 .text._lseek   0x00000000        0x4 c:/program files/microchip/xc32/v3.01/bin/bin/../../lib/gcc/pic32c/8.3.1/../../../../pic32c/lib/thumb/v7e-m+fp/hard\libpic32c.a(_lseek.o)
 .xc_stack_usage.hdr
                0x00000000        0xe c:/program files/microchip/xc32/v3.01/bin/bin/../../lib/gcc/pic32c/8.3.1/../../../../pic32c/lib/thumb/v7e-m+fp/hard\libpic32c.a(_lseek.o)
 .debug_info    0x00000000      0x2b2 c:/program files/microchip/xc32/v3.01/bin/bin/../../lib/gcc/pic32c/8.3.1/../../../../pic32c/lib/thumb/v7e-m+fp/hard\libpic32c.a(_lseek.o)
 .debug_abbrev  0x00000000       0x2b c:/program files/microchip/xc32/v3.01/bin/bin/../../lib/gcc/pic32c/8.3.1/../../../../pic32c/lib/thumb/v7e-m+fp/hard\libpic32c.a(_lseek.o)
 .debug_aranges
                0x00000000       0x20 c:/program files/microchip/xc32/v3.01/bin/bin/../../lib/gcc/pic32c/8.3.1/../../../../pic32c/lib/thumb/v7e-m+fp/hard\libpic32c.a(_lseek.o)
 .debug_ranges  0x00000000       0x10 c:/program files/microchip/xc32/v3.01/bin/bin/../../lib/gcc/pic32c/8.3.1/../../../../pic32c/lib/thumb/v7e-m+fp/hard\libpic32c.a(_lseek.o)
 .debug_line    0x00000000       0x9f c:/program files/microchip/xc32/v3.01/bin/bin/../../lib/gcc/pic32c/8.3.1/../../../../pic32c/lib/thumb/v7e-m+fp/hard\libpic32c.a(_lseek.o)
 .debug_str     0x00000000        0x0 c:/program files/microchip/xc32/v3.01/bin/bin/../../lib/gcc/pic32c/8.3.1/../../../../pic32c/lib/thumb/v7e-m+fp/hard\libpic32c.a(_lseek.o)
 .comment       0x00000000       0x54 c:/program files/microchip/xc32/v3.01/bin/bin/../../lib/gcc/pic32c/8.3.1/../../../../pic32c/lib/thumb/v7e-m+fp/hard\libpic32c.a(_lseek.o)
 .debug_frame   0x00000000       0x20 c:/program files/microchip/xc32/v3.01/bin/bin/../../lib/gcc/pic32c/8.3.1/../../../../pic32c/lib/thumb/v7e-m+fp/hard\libpic32c.a(_lseek.o)
 .ARM.attributes
                0x00000000       0x34 c:/program files/microchip/xc32/v3.01/bin/bin/../../lib/gcc/pic32c/8.3.1/../../../../pic32c/lib/thumb/v7e-m+fp/hard\libpic32c.a(_lseek.o)
 .text          0x00000000        0x0 c:/program files/microchip/xc32/v3.01/bin/bin/../../lib/gcc/pic32c/8.3.1/../../../../pic32c/lib/thumb/v7e-m+fp/hard\libpic32c.a(_read.o)
 .data          0x00000000        0x0 c:/program files/microchip/xc32/v3.01/bin/bin/../../lib/gcc/pic32c/8.3.1/../../../../pic32c/lib/thumb/v7e-m+fp/hard\libpic32c.a(_read.o)
 .bss           0x00000000        0x0 c:/program files/microchip/xc32/v3.01/bin/bin/../../lib/gcc/pic32c/8.3.1/../../../../pic32c/lib/thumb/v7e-m+fp/hard\libpic32c.a(_read.o)
 .xc_stack_usage
                0x00000000       0x13 c:/program files/microchip/xc32/v3.01/bin/bin/../../lib/gcc/pic32c/8.3.1/../../../../pic32c/lib/thumb/v7e-m+fp/hard\libpic32c.a(_read.o)
 .text._read    0x00000000        0x4 c:/program files/microchip/xc32/v3.01/bin/bin/../../lib/gcc/pic32c/8.3.1/../../../../pic32c/lib/thumb/v7e-m+fp/hard\libpic32c.a(_read.o)
 .xc_stack_usage.hdr
                0x00000000        0xe c:/program files/microchip/xc32/v3.01/bin/bin/../../lib/gcc/pic32c/8.3.1/../../../../pic32c/lib/thumb/v7e-m+fp/hard\libpic32c.a(_read.o)
 .debug_info    0x00000000      0x2b0 c:/program files/microchip/xc32/v3.01/bin/bin/../../lib/gcc/pic32c/8.3.1/../../../../pic32c/lib/thumb/v7e-m+fp/hard\libpic32c.a(_read.o)
 .debug_abbrev  0x00000000       0x2b c:/program files/microchip/xc32/v3.01/bin/bin/../../lib/gcc/pic32c/8.3.1/../../../../pic32c/lib/thumb/v7e-m+fp/hard\libpic32c.a(_read.o)
 .debug_aranges
                0x00000000       0x20 c:/program files/microchip/xc32/v3.01/bin/bin/../../lib/gcc/pic32c/8.3.1/../../../../pic32c/lib/thumb/v7e-m+fp/hard\libpic32c.a(_read.o)
 .debug_ranges  0x00000000       0x10 c:/program files/microchip/xc32/v3.01/bin/bin/../../lib/gcc/pic32c/8.3.1/../../../../pic32c/lib/thumb/v7e-m+fp/hard\libpic32c.a(_read.o)
 .debug_line    0x00000000       0x9e c:/program files/microchip/xc32/v3.01/bin/bin/../../lib/gcc/pic32c/8.3.1/../../../../pic32c/lib/thumb/v7e-m+fp/hard\libpic32c.a(_read.o)
 .debug_str     0x00000000        0x0 c:/program files/microchip/xc32/v3.01/bin/bin/../../lib/gcc/pic32c/8.3.1/../../../../pic32c/lib/thumb/v7e-m+fp/hard\libpic32c.a(_read.o)
 .comment       0x00000000       0x54 c:/program files/microchip/xc32/v3.01/bin/bin/../../lib/gcc/pic32c/8.3.1/../../../../pic32c/lib/thumb/v7e-m+fp/hard\libpic32c.a(_read.o)
 .debug_frame   0x00000000       0x20 c:/program files/microchip/xc32/v3.01/bin/bin/../../lib/gcc/pic32c/8.3.1/../../../../pic32c/lib/thumb/v7e-m+fp/hard\libpic32c.a(_read.o)
 .ARM.attributes
                0x00000000       0x34 c:/program files/microchip/xc32/v3.01/bin/bin/../../lib/gcc/pic32c/8.3.1/../../../../pic32c/lib/thumb/v7e-m+fp/hard\libpic32c.a(_read.o)
 .text          0x00000000        0x0 c:/program files/microchip/xc32/v3.01/bin/bin/../../lib/gcc/pic32c/8.3.1/../../../../pic32c/lib/thumb/v7e-m+fp/hard\libpic32c.a(sbrk.o)
 .data          0x00000000        0x0 c:/program files/microchip/xc32/v3.01/bin/bin/../../lib/gcc/pic32c/8.3.1/../../../../pic32c/lib/thumb/v7e-m+fp/hard\libpic32c.a(sbrk.o)
 .xc_stack_usage
                0x00000000       0x13 c:/program files/microchip/xc32/v3.01/bin/bin/../../lib/gcc/pic32c/8.3.1/../../../../pic32c/lib/thumb/v7e-m+fp/hard\libpic32c.a(sbrk.o)
 .xc_stack_usage.hdr
                0x00000000        0xe c:/program files/microchip/xc32/v3.01/bin/bin/../../lib/gcc/pic32c/8.3.1/../../../../pic32c/lib/thumb/v7e-m+fp/hard\libpic32c.a(sbrk.o)
 .text          0x00000000        0x0 c:/program files/microchip/xc32/v3.01/bin/bin/../../lib/gcc/pic32c/8.3.1/../../../../pic32c/lib/thumb/v7e-m+fp/hard\libpic32c.a(_write.o)
 .data          0x00000000        0x0 c:/program files/microchip/xc32/v3.01/bin/bin/../../lib/gcc/pic32c/8.3.1/../../../../pic32c/lib/thumb/v7e-m+fp/hard\libpic32c.a(_write.o)
 .bss           0x00000000        0x0 c:/program files/microchip/xc32/v3.01/bin/bin/../../lib/gcc/pic32c/8.3.1/../../../../pic32c/lib/thumb/v7e-m+fp/hard\libpic32c.a(_write.o)
 .xc_stack_usage
                0x00000000       0x14 c:/program files/microchip/xc32/v3.01/bin/bin/../../lib/gcc/pic32c/8.3.1/../../../../pic32c/lib/thumb/v7e-m+fp/hard\libpic32c.a(_write.o)
 .text._write   0x00000000        0x4 c:/program files/microchip/xc32/v3.01/bin/bin/../../lib/gcc/pic32c/8.3.1/../../../../pic32c/lib/thumb/v7e-m+fp/hard\libpic32c.a(_write.o)
 .xc_stack_usage.hdr
                0x00000000        0xe c:/program files/microchip/xc32/v3.01/bin/bin/../../lib/gcc/pic32c/8.3.1/../../../../pic32c/lib/thumb/v7e-m+fp/hard\libpic32c.a(_write.o)
 .debug_info    0x00000000      0x2b2 c:/program files/microchip/xc32/v3.01/bin/bin/../../lib/gcc/pic32c/8.3.1/../../../../pic32c/lib/thumb/v7e-m+fp/hard\libpic32c.a(_write.o)
 .debug_abbrev  0x00000000       0x2b c:/program files/microchip/xc32/v3.01/bin/bin/../../lib/gcc/pic32c/8.3.1/../../../../pic32c/lib/thumb/v7e-m+fp/hard\libpic32c.a(_write.o)
 .debug_aranges
                0x00000000       0x20 c:/program files/microchip/xc32/v3.01/bin/bin/../../lib/gcc/pic32c/8.3.1/../../../../pic32c/lib/thumb/v7e-m+fp/hard\libpic32c.a(_write.o)
 .debug_ranges  0x00000000       0x10 c:/program files/microchip/xc32/v3.01/bin/bin/../../lib/gcc/pic32c/8.3.1/../../../../pic32c/lib/thumb/v7e-m+fp/hard\libpic32c.a(_write.o)
 .debug_line    0x00000000       0x9f c:/program files/microchip/xc32/v3.01/bin/bin/../../lib/gcc/pic32c/8.3.1/../../../../pic32c/lib/thumb/v7e-m+fp/hard\libpic32c.a(_write.o)
 .debug_str     0x00000000        0x0 c:/program files/microchip/xc32/v3.01/bin/bin/../../lib/gcc/pic32c/8.3.1/../../../../pic32c/lib/thumb/v7e-m+fp/hard\libpic32c.a(_write.o)
 .comment       0x00000000       0x54 c:/program files/microchip/xc32/v3.01/bin/bin/../../lib/gcc/pic32c/8.3.1/../../../../pic32c/lib/thumb/v7e-m+fp/hard\libpic32c.a(_write.o)
 .debug_frame   0x00000000       0x20 c:/program files/microchip/xc32/v3.01/bin/bin/../../lib/gcc/pic32c/8.3.1/../../../../pic32c/lib/thumb/v7e-m+fp/hard\libpic32c.a(_write.o)
 .ARM.attributes
                0x00000000       0x34 c:/program files/microchip/xc32/v3.01/bin/bin/../../lib/gcc/pic32c/8.3.1/../../../../pic32c/lib/thumb/v7e-m+fp/hard\libpic32c.a(_write.o)
 .text          0x00000000        0x0 c:/program files/microchip/xc32/v3.01/bin/bin/../../lib/gcc/pic32c/8.3.1/../../../../pic32c/lib/thumb/v7e-m+fp/hard\libpic32c.a(close.o)
 .data          0x00000000        0x0 c:/program files/microchip/xc32/v3.01/bin/bin/../../lib/gcc/pic32c/8.3.1/../../../../pic32c/lib/thumb/v7e-m+fp/hard\libpic32c.a(close.o)
 .bss           0x00000000        0x0 c:/program files/microchip/xc32/v3.01/bin/bin/../../lib/gcc/pic32c/8.3.1/../../../../pic32c/lib/thumb/v7e-m+fp/hard\libpic32c.a(close.o)
 .xc_stack_usage
                0x00000000       0x13 c:/program files/microchip/xc32/v3.01/bin/bin/../../lib/gcc/pic32c/8.3.1/../../../../pic32c/lib/thumb/v7e-m+fp/hard\libpic32c.a(close.o)
 .text.close    0x00000000        0x8 c:/program files/microchip/xc32/v3.01/bin/bin/../../lib/gcc/pic32c/8.3.1/../../../../pic32c/lib/thumb/v7e-m+fp/hard\libpic32c.a(close.o)
 .gnu.warning.closestub
                0x00000000        0x0 c:/program files/microchip/xc32/v3.01/bin/bin/../../lib/gcc/pic32c/8.3.1/../../../../pic32c/lib/thumb/v7e-m+fp/hard\libpic32c.a(close.o)
 .xc_stack_usage.hdr
                0x00000000        0xe c:/program files/microchip/xc32/v3.01/bin/bin/../../lib/gcc/pic32c/8.3.1/../../../../pic32c/lib/thumb/v7e-m+fp/hard\libpic32c.a(close.o)
 .debug_info    0x00000000      0x2b1 c:/program files/microchip/xc32/v3.01/bin/bin/../../lib/gcc/pic32c/8.3.1/../../../../pic32c/lib/thumb/v7e-m+fp/hard\libpic32c.a(close.o)
 .debug_abbrev  0x00000000       0x2e c:/program files/microchip/xc32/v3.01/bin/bin/../../lib/gcc/pic32c/8.3.1/../../../../pic32c/lib/thumb/v7e-m+fp/hard\libpic32c.a(close.o)
 .debug_aranges
                0x00000000       0x20 c:/program files/microchip/xc32/v3.01/bin/bin/../../lib/gcc/pic32c/8.3.1/../../../../pic32c/lib/thumb/v7e-m+fp/hard\libpic32c.a(close.o)
 .debug_ranges  0x00000000       0x10 c:/program files/microchip/xc32/v3.01/bin/bin/../../lib/gcc/pic32c/8.3.1/../../../../pic32c/lib/thumb/v7e-m+fp/hard\libpic32c.a(close.o)
 .debug_line    0x00000000       0x9e c:/program files/microchip/xc32/v3.01/bin/bin/../../lib/gcc/pic32c/8.3.1/../../../../pic32c/lib/thumb/v7e-m+fp/hard\libpic32c.a(close.o)
 .debug_str     0x00000000        0x0 c:/program files/microchip/xc32/v3.01/bin/bin/../../lib/gcc/pic32c/8.3.1/../../../../pic32c/lib/thumb/v7e-m+fp/hard\libpic32c.a(close.o)
 .comment       0x00000000       0x54 c:/program files/microchip/xc32/v3.01/bin/bin/../../lib/gcc/pic32c/8.3.1/../../../../pic32c/lib/thumb/v7e-m+fp/hard\libpic32c.a(close.o)
 .debug_frame   0x00000000       0x20 c:/program files/microchip/xc32/v3.01/bin/bin/../../lib/gcc/pic32c/8.3.1/../../../../pic32c/lib/thumb/v7e-m+fp/hard\libpic32c.a(close.o)
 .ARM.attributes
                0x00000000       0x34 c:/program files/microchip/xc32/v3.01/bin/bin/../../lib/gcc/pic32c/8.3.1/../../../../pic32c/lib/thumb/v7e-m+fp/hard\libpic32c.a(close.o)
 .text          0x00000000        0x0 c:/program files/microchip/xc32/v3.01/bin/bin/../../lib/gcc/pic32c/8.3.1/../../../../pic32c/lib/thumb/v7e-m+fp/hard\libpic32c.a(lseek.o)
 .data          0x00000000        0x0 c:/program files/microchip/xc32/v3.01/bin/bin/../../lib/gcc/pic32c/8.3.1/../../../../pic32c/lib/thumb/v7e-m+fp/hard\libpic32c.a(lseek.o)
 .bss           0x00000000        0x0 c:/program files/microchip/xc32/v3.01/bin/bin/../../lib/gcc/pic32c/8.3.1/../../../../pic32c/lib/thumb/v7e-m+fp/hard\libpic32c.a(lseek.o)
 .xc_stack_usage
                0x00000000       0x13 c:/program files/microchip/xc32/v3.01/bin/bin/../../lib/gcc/pic32c/8.3.1/../../../../pic32c/lib/thumb/v7e-m+fp/hard\libpic32c.a(lseek.o)
 .text.lseek    0x00000000        0x4 c:/program files/microchip/xc32/v3.01/bin/bin/../../lib/gcc/pic32c/8.3.1/../../../../pic32c/lib/thumb/v7e-m+fp/hard\libpic32c.a(lseek.o)
 .xc_stack_usage.hdr
                0x00000000        0xe c:/program files/microchip/xc32/v3.01/bin/bin/../../lib/gcc/pic32c/8.3.1/../../../../pic32c/lib/thumb/v7e-m+fp/hard\libpic32c.a(lseek.o)
 .debug_info    0x00000000      0x2b1 c:/program files/microchip/xc32/v3.01/bin/bin/../../lib/gcc/pic32c/8.3.1/../../../../pic32c/lib/thumb/v7e-m+fp/hard\libpic32c.a(lseek.o)
 .debug_abbrev  0x00000000       0x2e c:/program files/microchip/xc32/v3.01/bin/bin/../../lib/gcc/pic32c/8.3.1/../../../../pic32c/lib/thumb/v7e-m+fp/hard\libpic32c.a(lseek.o)
 .debug_aranges
                0x00000000       0x20 c:/program files/microchip/xc32/v3.01/bin/bin/../../lib/gcc/pic32c/8.3.1/../../../../pic32c/lib/thumb/v7e-m+fp/hard\libpic32c.a(lseek.o)
 .debug_ranges  0x00000000       0x10 c:/program files/microchip/xc32/v3.01/bin/bin/../../lib/gcc/pic32c/8.3.1/../../../../pic32c/lib/thumb/v7e-m+fp/hard\libpic32c.a(lseek.o)
 .debug_line    0x00000000       0x9e c:/program files/microchip/xc32/v3.01/bin/bin/../../lib/gcc/pic32c/8.3.1/../../../../pic32c/lib/thumb/v7e-m+fp/hard\libpic32c.a(lseek.o)
 .debug_str     0x00000000        0x0 c:/program files/microchip/xc32/v3.01/bin/bin/../../lib/gcc/pic32c/8.3.1/../../../../pic32c/lib/thumb/v7e-m+fp/hard\libpic32c.a(lseek.o)
 .comment       0x00000000       0x54 c:/program files/microchip/xc32/v3.01/bin/bin/../../lib/gcc/pic32c/8.3.1/../../../../pic32c/lib/thumb/v7e-m+fp/hard\libpic32c.a(lseek.o)
 .debug_frame   0x00000000       0x20 c:/program files/microchip/xc32/v3.01/bin/bin/../../lib/gcc/pic32c/8.3.1/../../../../pic32c/lib/thumb/v7e-m+fp/hard\libpic32c.a(lseek.o)
 .ARM.attributes
                0x00000000       0x34 c:/program files/microchip/xc32/v3.01/bin/bin/../../lib/gcc/pic32c/8.3.1/../../../../pic32c/lib/thumb/v7e-m+fp/hard\libpic32c.a(lseek.o)
 .text          0x00000000        0x0 c:/program files/microchip/xc32/v3.01/bin/bin/../../lib/gcc/pic32c/8.3.1/../../../../pic32c/lib/thumb/v7e-m+fp/hard\libpic32c.a(read.o)
 .data          0x00000000        0x0 c:/program files/microchip/xc32/v3.01/bin/bin/../../lib/gcc/pic32c/8.3.1/../../../../pic32c/lib/thumb/v7e-m+fp/hard\libpic32c.a(read.o)
 .bss           0x00000000        0x0 c:/program files/microchip/xc32/v3.01/bin/bin/../../lib/gcc/pic32c/8.3.1/../../../../pic32c/lib/thumb/v7e-m+fp/hard\libpic32c.a(read.o)
 .xc_stack_usage
                0x00000000       0x12 c:/program files/microchip/xc32/v3.01/bin/bin/../../lib/gcc/pic32c/8.3.1/../../../../pic32c/lib/thumb/v7e-m+fp/hard\libpic32c.a(read.o)
 .text.read     0x00000000       0x28 c:/program files/microchip/xc32/v3.01/bin/bin/../../lib/gcc/pic32c/8.3.1/../../../../pic32c/lib/thumb/v7e-m+fp/hard\libpic32c.a(read.o)
 .xc_stack_usage.hdr
                0x00000000        0xe c:/program files/microchip/xc32/v3.01/bin/bin/../../lib/gcc/pic32c/8.3.1/../../../../pic32c/lib/thumb/v7e-m+fp/hard\libpic32c.a(read.o)
 .debug_info    0x00000000      0x2b0 c:/program files/microchip/xc32/v3.01/bin/bin/../../lib/gcc/pic32c/8.3.1/../../../../pic32c/lib/thumb/v7e-m+fp/hard\libpic32c.a(read.o)
 .debug_abbrev  0x00000000       0x2e c:/program files/microchip/xc32/v3.01/bin/bin/../../lib/gcc/pic32c/8.3.1/../../../../pic32c/lib/thumb/v7e-m+fp/hard\libpic32c.a(read.o)
 .debug_loc     0x00000000       0x14 c:/program files/microchip/xc32/v3.01/bin/bin/../../lib/gcc/pic32c/8.3.1/../../../../pic32c/lib/thumb/v7e-m+fp/hard\libpic32c.a(read.o)
 .debug_aranges
                0x00000000       0x20 c:/program files/microchip/xc32/v3.01/bin/bin/../../lib/gcc/pic32c/8.3.1/../../../../pic32c/lib/thumb/v7e-m+fp/hard\libpic32c.a(read.o)
 .debug_ranges  0x00000000       0x10 c:/program files/microchip/xc32/v3.01/bin/bin/../../lib/gcc/pic32c/8.3.1/../../../../pic32c/lib/thumb/v7e-m+fp/hard\libpic32c.a(read.o)
 .debug_line    0x00000000       0xc0 c:/program files/microchip/xc32/v3.01/bin/bin/../../lib/gcc/pic32c/8.3.1/../../../../pic32c/lib/thumb/v7e-m+fp/hard\libpic32c.a(read.o)
 .debug_str     0x00000000        0x0 c:/program files/microchip/xc32/v3.01/bin/bin/../../lib/gcc/pic32c/8.3.1/../../../../pic32c/lib/thumb/v7e-m+fp/hard\libpic32c.a(read.o)
 .comment       0x00000000       0x54 c:/program files/microchip/xc32/v3.01/bin/bin/../../lib/gcc/pic32c/8.3.1/../../../../pic32c/lib/thumb/v7e-m+fp/hard\libpic32c.a(read.o)
 .debug_frame   0x00000000       0x2c c:/program files/microchip/xc32/v3.01/bin/bin/../../lib/gcc/pic32c/8.3.1/../../../../pic32c/lib/thumb/v7e-m+fp/hard\libpic32c.a(read.o)
 .ARM.attributes
                0x00000000       0x34 c:/program files/microchip/xc32/v3.01/bin/bin/../../lib/gcc/pic32c/8.3.1/../../../../pic32c/lib/thumb/v7e-m+fp/hard\libpic32c.a(read.o)
 .text          0x00000000        0x0 c:/program files/microchip/xc32/v3.01/bin/bin/../../lib/gcc/pic32c/8.3.1/../../../../pic32c/lib/thumb/v7e-m+fp/hard\libpic32c.a(write.o)
 .data          0x00000000        0x0 c:/program files/microchip/xc32/v3.01/bin/bin/../../lib/gcc/pic32c/8.3.1/../../../../pic32c/lib/thumb/v7e-m+fp/hard\libpic32c.a(write.o)
 .bss           0x00000000        0x0 c:/program files/microchip/xc32/v3.01/bin/bin/../../lib/gcc/pic32c/8.3.1/../../../../pic32c/lib/thumb/v7e-m+fp/hard\libpic32c.a(write.o)
 .xc_stack_usage
                0x00000000       0x13 c:/program files/microchip/xc32/v3.01/bin/bin/../../lib/gcc/pic32c/8.3.1/../../../../pic32c/lib/thumb/v7e-m+fp/hard\libpic32c.a(write.o)
 .text.write    0x00000000       0x40 c:/program files/microchip/xc32/v3.01/bin/bin/../../lib/gcc/pic32c/8.3.1/../../../../pic32c/lib/thumb/v7e-m+fp/hard\libpic32c.a(write.o)
 .xc_stack_usage.hdr
                0x00000000        0xe c:/program files/microchip/xc32/v3.01/bin/bin/../../lib/gcc/pic32c/8.3.1/../../../../pic32c/lib/thumb/v7e-m+fp/hard\libpic32c.a(write.o)
 .debug_info    0x00000000      0x2b2 c:/program files/microchip/xc32/v3.01/bin/bin/../../lib/gcc/pic32c/8.3.1/../../../../pic32c/lib/thumb/v7e-m+fp/hard\libpic32c.a(write.o)
 .debug_abbrev  0x00000000       0x2e c:/program files/microchip/xc32/v3.01/bin/bin/../../lib/gcc/pic32c/8.3.1/../../../../pic32c/lib/thumb/v7e-m+fp/hard\libpic32c.a(write.o)
 .debug_loc     0x00000000       0x14 c:/program files/microchip/xc32/v3.01/bin/bin/../../lib/gcc/pic32c/8.3.1/../../../../pic32c/lib/thumb/v7e-m+fp/hard\libpic32c.a(write.o)
 .debug_aranges
                0x00000000       0x20 c:/program files/microchip/xc32/v3.01/bin/bin/../../lib/gcc/pic32c/8.3.1/../../../../pic32c/lib/thumb/v7e-m+fp/hard\libpic32c.a(write.o)
 .debug_ranges  0x00000000       0x10 c:/program files/microchip/xc32/v3.01/bin/bin/../../lib/gcc/pic32c/8.3.1/../../../../pic32c/lib/thumb/v7e-m+fp/hard\libpic32c.a(write.o)
 .debug_line    0x00000000       0xd0 c:/program files/microchip/xc32/v3.01/bin/bin/../../lib/gcc/pic32c/8.3.1/../../../../pic32c/lib/thumb/v7e-m+fp/hard\libpic32c.a(write.o)
 .debug_str     0x00000000        0x0 c:/program files/microchip/xc32/v3.01/bin/bin/../../lib/gcc/pic32c/8.3.1/../../../../pic32c/lib/thumb/v7e-m+fp/hard\libpic32c.a(write.o)
 .comment       0x00000000       0x54 c:/program files/microchip/xc32/v3.01/bin/bin/../../lib/gcc/pic32c/8.3.1/../../../../pic32c/lib/thumb/v7e-m+fp/hard\libpic32c.a(write.o)
 .debug_frame   0x00000000       0x2c c:/program files/microchip/xc32/v3.01/bin/bin/../../lib/gcc/pic32c/8.3.1/../../../../pic32c/lib/thumb/v7e-m+fp/hard\libpic32c.a(write.o)
 .ARM.attributes
                0x00000000       0x34 c:/program files/microchip/xc32/v3.01/bin/bin/../../lib/gcc/pic32c/8.3.1/../../../../pic32c/lib/thumb/v7e-m+fp/hard\libpic32c.a(write.o)
 .data          0x00000000        0x0 c:/program files/microchip/xc32/v3.01/bin/bin/../../lib/gcc/pic32c/8.3.1/thumb/v7e-m+fp/hard\libgcc.a(_arm_addsubdf3.o)
 .bss           0x00000000        0x0 c:/program files/microchip/xc32/v3.01/bin/bin/../../lib/gcc/pic32c/8.3.1/thumb/v7e-m+fp/hard\libgcc.a(_arm_addsubdf3.o)
 .xc_stack_usage.hdr
                0x00000000        0xe c:/program files/microchip/xc32/v3.01/bin/bin/../../lib/gcc/pic32c/8.3.1/thumb/v7e-m+fp/hard\libgcc.a(_arm_addsubdf3.o)
 .xc_stack_usage
                0x00000000       0xca c:/program files/microchip/xc32/v3.01/bin/bin/../../lib/gcc/pic32c/8.3.1/thumb/v7e-m+fp/hard\libgcc.a(_arm_addsubdf3.o)
 .data          0x00000000        0x0 c:/program files/microchip/xc32/v3.01/bin/bin/../../lib/gcc/pic32c/8.3.1/thumb/v7e-m+fp/hard\libgcc.a(_arm_muldivdf3.o)
 .bss           0x00000000        0x0 c:/program files/microchip/xc32/v3.01/bin/bin/../../lib/gcc/pic32c/8.3.1/thumb/v7e-m+fp/hard\libgcc.a(_arm_muldivdf3.o)
 .xc_stack_usage.hdr
                0x00000000        0xe c:/program files/microchip/xc32/v3.01/bin/bin/../../lib/gcc/pic32c/8.3.1/thumb/v7e-m+fp/hard\libgcc.a(_arm_muldivdf3.o)
 .xc_stack_usage
                0x00000000       0x2c c:/program files/microchip/xc32/v3.01/bin/bin/../../lib/gcc/pic32c/8.3.1/thumb/v7e-m+fp/hard\libgcc.a(_arm_muldivdf3.o)
 .data          0x00000000        0x0 c:/program files/microchip/xc32/v3.01/bin/bin/../../lib/gcc/pic32c/8.3.1/thumb/v7e-m+fp/hard\libgcc.a(_arm_cmpdf2.o)
 .bss           0x00000000        0x0 c:/program files/microchip/xc32/v3.01/bin/bin/../../lib/gcc/pic32c/8.3.1/thumb/v7e-m+fp/hard\libgcc.a(_arm_cmpdf2.o)
 .xc_stack_usage.hdr
                0x00000000        0xe c:/program files/microchip/xc32/v3.01/bin/bin/../../lib/gcc/pic32c/8.3.1/thumb/v7e-m+fp/hard\libgcc.a(_arm_cmpdf2.o)
 .xc_stack_usage
                0x00000000      0x107 c:/program files/microchip/xc32/v3.01/bin/bin/../../lib/gcc/pic32c/8.3.1/thumb/v7e-m+fp/hard\libgcc.a(_arm_cmpdf2.o)
 .data          0x00000000        0x0 c:/program files/microchip/xc32/v3.01/bin/bin/../../lib/gcc/pic32c/8.3.1/thumb/v7e-m+fp/hard\libgcc.a(_arm_unorddf2.o)
 .bss           0x00000000        0x0 c:/program files/microchip/xc32/v3.01/bin/bin/../../lib/gcc/pic32c/8.3.1/thumb/v7e-m+fp/hard\libgcc.a(_arm_unorddf2.o)
 .xc_stack_usage.hdr
                0x00000000        0xe c:/program files/microchip/xc32/v3.01/bin/bin/../../lib/gcc/pic32c/8.3.1/thumb/v7e-m+fp/hard\libgcc.a(_arm_unorddf2.o)
 .xc_stack_usage
                0x00000000       0x18 c:/program files/microchip/xc32/v3.01/bin/bin/../../lib/gcc/pic32c/8.3.1/thumb/v7e-m+fp/hard\libgcc.a(_arm_unorddf2.o)
 .data          0x00000000        0x0 c:/program files/microchip/xc32/v3.01/bin/bin/../../lib/gcc/pic32c/8.3.1/thumb/v7e-m+fp/hard\libgcc.a(_arm_fixdfsi.o)
 .bss           0x00000000        0x0 c:/program files/microchip/xc32/v3.01/bin/bin/../../lib/gcc/pic32c/8.3.1/thumb/v7e-m+fp/hard\libgcc.a(_arm_fixdfsi.o)
 .xc_stack_usage.hdr
                0x00000000        0xe c:/program files/microchip/xc32/v3.01/bin/bin/../../lib/gcc/pic32c/8.3.1/thumb/v7e-m+fp/hard\libgcc.a(_arm_fixdfsi.o)
 .xc_stack_usage
                0x00000000       0x17 c:/program files/microchip/xc32/v3.01/bin/bin/../../lib/gcc/pic32c/8.3.1/thumb/v7e-m+fp/hard\libgcc.a(_arm_fixdfsi.o)
 .text          0x00000000        0x0 c:/program files/microchip/xc32/v3.01/bin/bin/../../lib/gcc/pic32c/8.3.1/thumb/v7e-m+fp/hard/crtend.o
 .data          0x00000000        0x0 c:/program files/microchip/xc32/v3.01/bin/bin/../../lib/gcc/pic32c/8.3.1/thumb/v7e-m+fp/hard/crtend.o
 .bss           0x00000000        0x0 c:/program files/microchip/xc32/v3.01/bin/bin/../../lib/gcc/pic32c/8.3.1/thumb/v7e-m+fp/hard/crtend.o
 .eh_frame      0x00000000        0x4 c:/program files/microchip/xc32/v3.01/bin/bin/../../lib/gcc/pic32c/8.3.1/thumb/v7e-m+fp/hard/crtend.o
 .xc_stack_usage.hdr
                0x00000000        0xe c:/program files/microchip/xc32/v3.01/bin/bin/../../lib/gcc/pic32c/8.3.1/thumb/v7e-m+fp/hard/crtend.o
 .comment       0x00000000       0x54 c:/program files/microchip/xc32/v3.01/bin/bin/../../lib/gcc/pic32c/8.3.1/thumb/v7e-m+fp/hard/crtend.o
 .ARM.attributes
                0x00000000       0x32 c:/program files/microchip/xc32/v3.01/bin/bin/../../lib/gcc/pic32c/8.3.1/thumb/v7e-m+fp/hard/crtend.o
 .text          0x00000000        0x0 c:/program files/microchip/xc32/v3.01/bin/bin/../../lib/gcc/pic32c/8.3.1/thumb/v7e-m+fp/hard/crtn.o
 .data          0x00000000        0x0 c:/program files/microchip/xc32/v3.01/bin/bin/../../lib/gcc/pic32c/8.3.1/thumb/v7e-m+fp/hard/crtn.o
 .bss           0x00000000        0x0 c:/program files/microchip/xc32/v3.01/bin/bin/../../lib/gcc/pic32c/8.3.1/thumb/v7e-m+fp/hard/crtn.o
 .xc_stack_usage.hdr
                0x00000000        0xe c:/program files/microchip/xc32/v3.01/bin/bin/../../lib/gcc/pic32c/8.3.1/thumb/v7e-m+fp/hard/crtn.o

Memory Configuration

Name             Origin             Length             Attributes
rom              0x00000000         0x00100000         xrl
ram              0x20000000         0x00040000         xw !r
tcm              0x03000000         0x00000000         xw
config_00804000  0x00804000         0x00000004
config_00804008  0x00804008         0x00000004
config_00804004  0x00804004         0x00000004
*default*        0x00000000         0xffffffff

Linker script and memory map

LOAD c:/program files/microchip/xc32/v3.01/bin/bin/../../lib/gcc/pic32c/8.3.1/thumb/v7e-m+fp/hard/crti.o
LOAD c:/program files/microchip/xc32/v3.01/bin/bin/../../lib/gcc/pic32c/8.3.1/thumb/v7e-m+fp/hard/crtbegin.o
LOAD build/sam_e54_xpro_winc1500/production/_ext/1159541321/bsp.o
LOAD build/sam_e54_xpro_winc1500/production/_ext/138683810/drv_spi.o
LOAD build/sam_e54_xpro_winc1500/production/_ext/1232460686/wdrv_winc_eint.o
LOAD build/sam_e54_xpro_winc1500/production/_ext/1232460686/wdrv_winc_gpio.o
LOAD build/sam_e54_xpro_winc1500/production/_ext/930086057/wdrv_winc_spi.o
LOAD build/sam_e54_xpro_winc1500/production/_ext/1121136421/nm_common.o
LOAD build/sam_e54_xpro_winc1500/production/_ext/1089847528/m2m_hif.o
LOAD build/sam_e54_xpro_winc1500/production/_ext/1089847528/m2m_periph.o
LOAD build/sam_e54_xpro_winc1500/production/_ext/1089847528/m2m_wifi.o
LOAD build/sam_e54_xpro_winc1500/production/_ext/1089847528/nmasic.o
LOAD build/sam_e54_xpro_winc1500/production/_ext/1089847528/nmbus.o
LOAD build/sam_e54_xpro_winc1500/production/_ext/1089847528/nmdrv.o
LOAD build/sam_e54_xpro_winc1500/production/_ext/1089847528/nmspi.o
LOAD build/sam_e54_xpro_winc1500/production/_ext/1089847528/m2m_ota.o
LOAD build/sam_e54_xpro_winc1500/production/_ext/1089847528/m2m_ssl.o
LOAD build/sam_e54_xpro_winc1500/production/_ext/663370141/socket.o
LOAD build/sam_e54_xpro_winc1500/production/_ext/663370141/inet_ntop.o
LOAD build/sam_e54_xpro_winc1500/production/_ext/663370141/inet_addr.o
LOAD build/sam_e54_xpro_winc1500/production/_ext/1114755757/spi_flash.o
LOAD build/sam_e54_xpro_winc1500/production/_ext/1114755757/flexible_flash.o
LOAD build/sam_e54_xpro_winc1500/production/_ext/550069128/wdrv_winc_osal.o
LOAD build/sam_e54_xpro_winc1500/production/_ext/810064134/wdrv_winc.o
LOAD build/sam_e54_xpro_winc1500/production/_ext/810064134/wdrv_winc_assoc.o
LOAD build/sam_e54_xpro_winc1500/production/_ext/810064134/wdrv_winc_authctx.o
LOAD build/sam_e54_xpro_winc1500/production/_ext/810064134/wdrv_winc_bssctx.o
LOAD build/sam_e54_xpro_winc1500/production/_ext/810064134/wdrv_winc_bssfind.o
LOAD build/sam_e54_xpro_winc1500/production/_ext/810064134/wdrv_winc_custie.o
LOAD build/sam_e54_xpro_winc1500/production/_ext/810064134/wdrv_winc_host_file.o
LOAD build/sam_e54_xpro_winc1500/production/_ext/810064134/wdrv_winc_httpprovctx.o
LOAD build/sam_e54_xpro_winc1500/production/_ext/810064134/wdrv_winc_nvm.o
LOAD build/sam_e54_xpro_winc1500/production/_ext/810064134/wdrv_winc_powersave.o
LOAD build/sam_e54_xpro_winc1500/production/_ext/810064134/wdrv_winc_socket.o
LOAD build/sam_e54_xpro_winc1500/production/_ext/810064134/wdrv_winc_softap.o
LOAD build/sam_e54_xpro_winc1500/production/_ext/810064134/wdrv_winc_ssl.o
LOAD build/sam_e54_xpro_winc1500/production/_ext/810064134/wdrv_winc_sta.o
LOAD build/sam_e54_xpro_winc1500/production/_ext/810064134/wdrv_winc_systime.o
LOAD build/sam_e54_xpro_winc1500/production/_ext/810064134/wdrv_winc_wps.o
LOAD build/sam_e54_xpro_winc1500/production/_ext/583946941/plib_clock.o
LOAD build/sam_e54_xpro_winc1500/production/_ext/1643731573/plib_cmcc.o
LOAD build/sam_e54_xpro_winc1500/production/_ext/1643761302/plib_dmac.o
LOAD build/sam_e54_xpro_winc1500/production/_ext/2025184588/plib_eic.o
LOAD build/sam_e54_xpro_winc1500/production/_ext/581797455/plib_evsys.o
LOAD build/sam_e54_xpro_winc1500/production/_ext/1644068109/plib_nvic.o
LOAD build/sam_e54_xpro_winc1500/production/_ext/1370199163/plib_nvmctrl.o
LOAD build/sam_e54_xpro_winc1500/production/_ext/1644121260/plib_port.o
LOAD build/sam_e54_xpro_winc1500/production/_ext/1854354360/plib_sercom4_spi_master.o
LOAD build/sam_e54_xpro_winc1500/production/_ext/923560386/plib_sercom2_usart.o
LOAD build/sam_e54_xpro_winc1500/production/_ext/1320145242/plib_tc3.o
LOAD build/sam_e54_xpro_winc1500/production/_ext/1906958335/xc32_monitor.o
LOAD build/sam_e54_xpro_winc1500/production/_ext/1221796054/sys_cache.o
LOAD build/sam_e54_xpro_winc1500/production/_ext/501133612/sys_console.o
LOAD build/sam_e54_xpro_winc1500/production/_ext/501133612/sys_console_uart.o
LOAD build/sam_e54_xpro_winc1500/production/_ext/1623561264/sys_debug.o
LOAD build/sam_e54_xpro_winc1500/production/_ext/895123808/sys_dma.o
LOAD build/sam_e54_xpro_winc1500/production/_ext/203683476/sys_int.o
LOAD build/sam_e54_xpro_winc1500/production/_ext/323285254/sys_time.o
LOAD build/sam_e54_xpro_winc1500/production/_ext/231993977/initialization.o
LOAD build/sam_e54_xpro_winc1500/production/_ext/231993977/interrupts.o
LOAD build/sam_e54_xpro_winc1500/production/_ext/231993977/exceptions.o
LOAD build/sam_e54_xpro_winc1500/production/_ext/231993977/startup_xc32.o
LOAD build/sam_e54_xpro_winc1500/production/_ext/231993977/libc_syscalls.o
LOAD build/sam_e54_xpro_winc1500/production/_ext/231993977/tasks.o
LOAD build/sam_e54_xpro_winc1500/production/_ext/1360937237/example.o
LOAD build/sam_e54_xpro_winc1500/production/_ext/1360937237/main.o
LOAD build/sam_e54_xpro_winc1500/production/_ext/1360937237/app.o
                0x00000001                __MPLAB_BUILD = 0x1
                0x00100000                __rom_end = (ORIGIN (rom) + LENGTH (rom))
                0x20040000                __ram_end = (ORIGIN (ram) + LENGTH (ram))

.config_00804000
                0x00804000        0x4
 *(.config_00804000)
 .config_00804000
                0x00804000        0x4 build/sam_e54_xpro_winc1500/production/_ext/231993977/initialization.o
                0x00804000                __config_00804000

.config_00804008
                0x00804008        0x4
 *(.config_00804008)
 .config_00804008
                0x00804008        0x4 build/sam_e54_xpro_winc1500/production/_ext/231993977/initialization.o
                0x00804008                __config_00804008

.config_00804004
                0x00804004        0x4
 *(.config_00804004)
 .config_00804004
                0x00804004        0x4 build/sam_e54_xpro_winc1500/production/_ext/231993977/initialization.o
                0x00804004                __config_00804004

.vectors        0x00000000      0x264
                0x00000000                . = ALIGN (0x4)
                0x00000000                _sfixed = .
 *(.vectors .vectors.* .vectors_default .vectors_default.*)
 .vectors       0x00000000      0x264 build/sam_e54_xpro_winc1500/production/_ext/231993977/interrupts.o
                0x00000000                exception_table
 *(.isr_vector)
 *(.reset*)
 *(.after_vectors)

.text           0x00000264       0x20
                0x00000264                . = ALIGN (0x4)
 *(.glue_7t)
 .glue_7t       0x00000264        0x0 linker stubs
 *(.glue_7)
 .glue_7        0x00000264        0x0 linker stubs
 *(.gnu.linkonce.r.*)
 *(.ARM.extab* .gnu.linkonce.armextab.*)
                0x00000264                . = ALIGN (0x4)
 *(.init)
 .init          0x00000264        0x4 c:/program files/microchip/xc32/v3.01/bin/bin/../../lib/gcc/pic32c/8.3.1/thumb/v7e-m+fp/hard/crti.o
                0x00000264                _init
 .init          0x00000268        0x8 c:/program files/microchip/xc32/v3.01/bin/bin/../../lib/gcc/pic32c/8.3.1/thumb/v7e-m+fp/hard/crtn.o
                0x00000270                . = ALIGN (0x4)
                0x00000270                __preinit_array_start = .
 *(.preinit_array)
                0x00000270                __preinit_array_end = .
                0x00000270                . = ALIGN (0x4)
                0x00000270                __init_array_start = .
 *(SORT_BY_NAME(.init_array.*))
 *(.init_array)
 .init_array    0x00000270        0x4 c:/program files/microchip/xc32/v3.01/bin/bin/../../lib/gcc/pic32c/8.3.1/thumb/v7e-m+fp/hard/crtbegin.o
                0x00000274                __init_array_end = .
                0x00000274                . = ALIGN (0x4)
 *crtbegin.o(.ctors)
 *(EXCLUDE_FILE(*crtend.o) .ctors)
 *(SORT_BY_NAME(.ctors.*))
 *crtend.o(.ctors)
                0x00000274                . = ALIGN (0x4)
 *(.fini)
 .fini          0x00000274        0x4 c:/program files/microchip/xc32/v3.01/bin/bin/../../lib/gcc/pic32c/8.3.1/thumb/v7e-m+fp/hard/crti.o
                0x00000274                _fini
 .fini          0x00000278        0x8 c:/program files/microchip/xc32/v3.01/bin/bin/../../lib/gcc/pic32c/8.3.1/thumb/v7e-m+fp/hard/crtn.o
                0x00000280                . = ALIGN (0x4)
                0x00000280                __fini_array_start = .
 *(.fini_array)
 .fini_array    0x00000280        0x4 c:/program files/microchip/xc32/v3.01/bin/bin/../../lib/gcc/pic32c/8.3.1/thumb/v7e-m+fp/hard/crtbegin.o
 *(SORT_BY_NAME(.fini_array.*))
                0x00000284                __fini_array_end = .
 *crtbegin.o(.dtors)
 *(EXCLUDE_FILE(*crtend.o) .dtors)
 *(SORT_BY_NAME(.dtors.*))
 *crtend.o(.dtors)
                0x00000284                . = ALIGN (0x4)
                0x00000284                _efixed = .
                [!provide]                PROVIDE (__exidx_start = .)

.ARM.exidx      0x00000284        0x8
 *(.ARM.exidx* .gnu.linkonce.armexidx.*)
 .ARM.exidx     0x00000284        0x8 c:/program files/microchip/xc32/v3.01/bin/bin/../../lib/gcc/pic32c/8.3.1/thumb/v7e-m+fp/hard\libgcc.a(_udivmoddi4.o)
                [!provide]                PROVIDE (__exidx_end = .)
                0x0000028c                . = ALIGN (0x4)
                0x0000028c                _etext = .

.bss            0x20000000        0x4
                0x20000000                . = ALIGN (0x4)
                0x20000000                __bss_start__ = .
                0x20000000                _sbss = .
                0x20000000                _szero = .
 *(COMMON)
 COMMON         0x20000000        0x4 c:/program files/microchip/xc32/v3.01/bin/bin/../../lib/gcc/pic32c/8.3.1/../../../../pic32c/lib/thumb/v7e-m+fp/hard\libc_nano.a(lib_a-reent.o)
                0x20000000                errno
                0x20000004                . = ALIGN (0x4)
                0x20000004                __bss_end__ = .
                0x20000004                _ebss = .
                0x20000004                _ezero = .
                0x20000004                . = ALIGN (0x4)
                0x20000004                _end = .
                0x2003ffff                _ram_end_ = ((ORIGIN (ram) + LENGTH (ram)) - 0x1)
                0x00002710                _min_heap_size = 0x2710
START GROUP
LOAD c:/program files/microchip/xc32/v3.01/bin/bin/../../lib/gcc/pic32c/8.3.1/../../../../pic32c/lib/thumb/v7e-m+fp/hard\libpic32c.a
LOAD c:/program files/microchip/xc32/v3.01/bin/bin/../../lib/gcc/pic32c/8.3.1/thumb/v7e-m+fp/hard\libgcc.a
LOAD c:/program files/microchip/xc32/v3.01/bin/bin/../../lib/gcc/pic32c/8.3.1/../../../../pic32c/lib/thumb/v7e-m+fp/hard\libm_nano.a
LOAD c:/program files/microchip/xc32/v3.01/bin/bin/../../lib/gcc/pic32c/8.3.1/../../../../pic32c/lib/thumb/v7e-m+fp/hard\libc_nano.a
END GROUP
LOAD c:/program files/microchip/xc32/v3.01/bin/bin/../../lib/gcc/pic32c/8.3.1/thumb/v7e-m+fp/hard/crtend.o
LOAD c:/program files/microchip/xc32/v3.01/bin/bin/../../lib/gcc/pic32c/8.3.1/thumb/v7e-m+fp/hard/crtn.o
OUTPUT(dist/sam_e54_xpro_winc1500/production/yellowibird_e54_xpro.X.production.elf elf32-littlearm)
LOAD stack
LOAD data_init

.ARM.attributes
                0x00000000       0x30
 .ARM.attributes
                0x00000000       0x1e c:/program files/microchip/xc32/v3.01/bin/bin/../../lib/gcc/pic32c/8.3.1/thumb/v7e-m+fp/hard/crti.o
 .ARM.attributes
                0x0000001e       0x34 c:/program files/microchip/xc32/v3.01/bin/bin/../../lib/gcc/pic32c/8.3.1/thumb/v7e-m+fp/hard/crtbegin.o
 .ARM.attributes
                0x00000052       0x34 build/sam_e54_xpro_winc1500/production/_ext/1159541321/bsp.o
 .ARM.attributes
                0x00000086       0x34 build/sam_e54_xpro_winc1500/production/_ext/138683810/drv_spi.o
 .ARM.attributes
                0x000000ba       0x34 build/sam_e54_xpro_winc1500/production/_ext/1232460686/wdrv_winc_eint.o
 .ARM.attributes
                0x000000ee       0x34 build/sam_e54_xpro_winc1500/production/_ext/1232460686/wdrv_winc_gpio.o
 .ARM.attributes
                0x00000122       0x34 build/sam_e54_xpro_winc1500/production/_ext/930086057/wdrv_winc_spi.o
 .ARM.attributes
                0x00000156       0x34 build/sam_e54_xpro_winc1500/production/_ext/1121136421/nm_common.o
 .ARM.attributes
                0x0000018a       0x34 build/sam_e54_xpro_winc1500/production/_ext/1089847528/m2m_hif.o
 .ARM.attributes
                0x000001be       0x34 build/sam_e54_xpro_winc1500/production/_ext/1089847528/m2m_wifi.o
 .ARM.attributes
                0x000001f2       0x34 build/sam_e54_xpro_winc1500/production/_ext/1089847528/nmasic.o
 .ARM.attributes
                0x00000226       0x34 build/sam_e54_xpro_winc1500/production/_ext/1089847528/nmbus.o
 .ARM.attributes
                0x0000025a       0x34 build/sam_e54_xpro_winc1500/production/_ext/1089847528/nmdrv.o
 .ARM.attributes
                0x0000028e       0x34 build/sam_e54_xpro_winc1500/production/_ext/1089847528/nmspi.o
 .ARM.attributes
                0x000002c2       0x34 build/sam_e54_xpro_winc1500/production/_ext/1089847528/m2m_ota.o
 .ARM.attributes
                0x000002f6       0x34 build/sam_e54_xpro_winc1500/production/_ext/1089847528/m2m_ssl.o
 .ARM.attributes
                0x0000032a       0x34 build/sam_e54_xpro_winc1500/production/_ext/663370141/socket.o
 .ARM.attributes
                0x0000035e       0x34 build/sam_e54_xpro_winc1500/production/_ext/663370141/inet_ntop.o
 .ARM.attributes
                0x00000392       0x34 build/sam_e54_xpro_winc1500/production/_ext/663370141/inet_addr.o
 .ARM.attributes
                0x000003c6       0x34 build/sam_e54_xpro_winc1500/production/_ext/1114755757/spi_flash.o
 .ARM.attributes
                0x000003fa       0x34 build/sam_e54_xpro_winc1500/production/_ext/1114755757/flexible_flash.o
 .ARM.attributes
                0x0000042e       0x34 build/sam_e54_xpro_winc1500/production/_ext/550069128/wdrv_winc_osal.o
 .ARM.attributes
                0x00000462       0x34 build/sam_e54_xpro_winc1500/production/_ext/810064134/wdrv_winc.o
 .ARM.attributes
                0x00000496       0x34 build/sam_e54_xpro_winc1500/production/_ext/810064134/wdrv_winc_authctx.o
 .ARM.attributes
                0x000004ca       0x34 build/sam_e54_xpro_winc1500/production/_ext/810064134/wdrv_winc_bssctx.o
 .ARM.attributes
                0x000004fe       0x34 build/sam_e54_xpro_winc1500/production/_ext/810064134/wdrv_winc_host_file.o
 .ARM.attributes
                0x00000532       0x34 build/sam_e54_xpro_winc1500/production/_ext/810064134/wdrv_winc_socket.o
 .ARM.attributes
                0x00000566       0x34 build/sam_e54_xpro_winc1500/production/_ext/810064134/wdrv_winc_sta.o
 .ARM.attributes
                0x0000059a       0x34 build/sam_e54_xpro_winc1500/production/_ext/810064134/wdrv_winc_systime.o
 .ARM.attributes
                0x000005ce       0x34 build/sam_e54_xpro_winc1500/production/_ext/583946941/plib_clock.o
 .ARM.attributes
                0x00000602       0x34 build/sam_e54_xpro_winc1500/production/_ext/1643761302/plib_dmac.o
 .ARM.attributes
                0x00000636       0x34 build/sam_e54_xpro_winc1500/production/_ext/2025184588/plib_eic.o
 .ARM.attributes
                0x0000066a       0x34 build/sam_e54_xpro_winc1500/production/_ext/581797455/plib_evsys.o
 .ARM.attributes
                0x0000069e       0x34 build/sam_e54_xpro_winc1500/production/_ext/1644068109/plib_nvic.o
 .ARM.attributes
                0x000006d2       0x34 build/sam_e54_xpro_winc1500/production/_ext/1370199163/plib_nvmctrl.o
 .ARM.attributes
                0x00000706       0x34 build/sam_e54_xpro_winc1500/production/_ext/1644121260/plib_port.o
 .ARM.attributes
                0x0000073a       0x34 build/sam_e54_xpro_winc1500/production/_ext/1854354360/plib_sercom4_spi_master.o
 .ARM.attributes
                0x0000076e       0x34 build/sam_e54_xpro_winc1500/production/_ext/923560386/plib_sercom2_usart.o
 .ARM.attributes
                0x000007a2       0x34 build/sam_e54_xpro_winc1500/production/_ext/1320145242/plib_tc3.o
 .ARM.attributes
                0x000007d6       0x34 build/sam_e54_xpro_winc1500/production/_ext/501133612/sys_console.o
 .ARM.attributes
                0x0000080a       0x34 build/sam_e54_xpro_winc1500/production/_ext/501133612/sys_console_uart.o
 .ARM.attributes
                0x0000083e       0x34 build/sam_e54_xpro_winc1500/production/_ext/1623561264/sys_debug.o
 .ARM.attributes
                0x00000872       0x34 build/sam_e54_xpro_winc1500/production/_ext/895123808/sys_dma.o
 .ARM.attributes
                0x000008a6       0x34 build/sam_e54_xpro_winc1500/production/_ext/203683476/sys_int.o
 .ARM.attributes
                0x000008da       0x34 build/sam_e54_xpro_winc1500/production/_ext/323285254/sys_time.o
 .ARM.attributes
                0x0000090e       0x34 build/sam_e54_xpro_winc1500/production/_ext/231993977/initialization.o
 .ARM.attributes
                0x00000942       0x34 build/sam_e54_xpro_winc1500/production/_ext/231993977/interrupts.o
 .ARM.attributes
                0x00000976       0x34 build/sam_e54_xpro_winc1500/production/_ext/231993977/exceptions.o
 .ARM.attributes
                0x000009aa       0x34 build/sam_e54_xpro_winc1500/production/_ext/231993977/startup_xc32.o
 .ARM.attributes
                0x000009de       0x34 build/sam_e54_xpro_winc1500/production/_ext/231993977/tasks.o
 .ARM.attributes
                0x00000a12       0x34 build/sam_e54_xpro_winc1500/production/_ext/1360937237/example.o
 .ARM.attributes
                0x00000a46       0x34 build/sam_e54_xpro_winc1500/production/_ext/1360937237/main.o
 .ARM.attributes
                0x00000a7a       0x34 build/sam_e54_xpro_winc1500/production/_ext/1360937237/app.o
 .ARM.attributes
                0x00000aae       0x34 c:/program files/microchip/xc32/v3.01/bin/bin/../../lib/gcc/pic32c/8.3.1/../../../../pic32c/lib/thumb/v7e-m+fp/hard\libpic32c.a(data_init.o)
 .ARM.attributes
                0x00000ae2       0x1e c:/program files/microchip/xc32/v3.01/bin/bin/../../lib/gcc/pic32c/8.3.1/thumb/v7e-m+fp/hard\libgcc.a(_aeabi_uldivmod.o)
 .ARM.attributes
                0x00000b00       0x34 c:/program files/microchip/xc32/v3.01/bin/bin/../../lib/gcc/pic32c/8.3.1/thumb/v7e-m+fp/hard\libgcc.a(_udivmoddi4.o)
 .ARM.attributes
                0x00000b34       0x1e c:/program files/microchip/xc32/v3.01/bin/bin/../../lib/gcc/pic32c/8.3.1/thumb/v7e-m+fp/hard\libgcc.a(_dvmd_tls.o)
 .ARM.attributes
                0x00000b52       0x32 c:/program files/microchip/xc32/v3.01/bin/bin/../../lib/gcc/pic32c/8.3.1/../../../../pic32c/lib/thumb/v7e-m+fp/hard\libc_nano.a(lib_a-impure.o)
 .ARM.attributes
                0x00000b84       0x34 c:/program files/microchip/xc32/v3.01/bin/bin/../../lib/gcc/pic32c/8.3.1/../../../../pic32c/lib/thumb/v7e-m+fp/hard\libc_nano.a(lib_a-init.o)
 .ARM.attributes
                0x00000bb8       0x34 c:/program files/microchip/xc32/v3.01/bin/bin/../../lib/gcc/pic32c/8.3.1/../../../../pic32c/lib/thumb/v7e-m+fp/hard\libc_nano.a(lib_a-malloc.o)
 .ARM.attributes
                0x00000bec       0x34 c:/program files/microchip/xc32/v3.01/bin/bin/../../lib/gcc/pic32c/8.3.1/../../../../pic32c/lib/thumb/v7e-m+fp/hard\libc_nano.a(lib_a-memcpy-stub.o)
 .ARM.attributes
                0x00000c20       0x34 c:/program files/microchip/xc32/v3.01/bin/bin/../../lib/gcc/pic32c/8.3.1/../../../../pic32c/lib/thumb/v7e-m+fp/hard\libc_nano.a(lib_a-memset.o)
 .ARM.attributes
                0x00000c54       0x34 c:/program files/microchip/xc32/v3.01/bin/bin/../../lib/gcc/pic32c/8.3.1/../../../../pic32c/lib/thumb/v7e-m+fp/hard\libc_nano.a(lib_a-mktime.o)
 .ARM.attributes
                0x00000c88       0x34 c:/program files/microchip/xc32/v3.01/bin/bin/../../lib/gcc/pic32c/8.3.1/../../../../pic32c/lib/thumb/v7e-m+fp/hard\libc_nano.a(lib_a-nano-freer.o)
 .ARM.attributes
                0x00000cbc       0x34 c:/program files/microchip/xc32/v3.01/bin/bin/../../lib/gcc/pic32c/8.3.1/../../../../pic32c/lib/thumb/v7e-m+fp/hard\libc_nano.a(lib_a-nano-mallocr.o)
 .ARM.attributes
                0x00000cf0       0x34 c:/program files/microchip/xc32/v3.01/bin/bin/../../lib/gcc/pic32c/8.3.1/../../../../pic32c/lib/thumb/v7e-m+fp/hard\libc_nano.a(lib_a-sbrkr.o)
 .ARM.attributes
                0x00000d24       0x34 c:/program files/microchip/xc32/v3.01/bin/bin/../../lib/gcc/pic32c/8.3.1/../../../../pic32c/lib/thumb/v7e-m+fp/hard\libc_nano.a(lib_a-strchr.o)
 .ARM.attributes
                0x00000d58       0x17 c:/program files/microchip/xc32/v3.01/bin/bin/../../lib/gcc/pic32c/8.3.1/../../../../pic32c/lib/thumb/v7e-m+fp/hard\libc_nano.a(lib_a-strlen.o)
 .ARM.attributes
                0x00000d6f       0x34 c:/program files/microchip/xc32/v3.01/bin/bin/../../lib/gcc/pic32c/8.3.1/../../../../pic32c/lib/thumb/v7e-m+fp/hard\libc_nano.a(lib_a-tzcalc_limits.o)
 .ARM.attributes
                0x00000da3       0x34 c:/program files/microchip/xc32/v3.01/bin/bin/../../lib/gcc/pic32c/8.3.1/../../../../pic32c/lib/thumb/v7e-m+fp/hard\libc_nano.a(lib_a-tzset.o)
 .ARM.attributes
                0x00000dd7       0x34 c:/program files/microchip/xc32/v3.01/bin/bin/../../lib/gcc/pic32c/8.3.1/../../../../pic32c/lib/thumb/v7e-m+fp/hard\libc_nano.a(lib_a-tzset_r.o)
 .ARM.attributes
                0x00000e0b       0x32 c:/program files/microchip/xc32/v3.01/bin/bin/../../lib/gcc/pic32c/8.3.1/../../../../pic32c/lib/thumb/v7e-m+fp/hard\libc_nano.a(lib_a-tzvars.o)
 .ARM.attributes
                0x00000e3d       0x34 c:/program files/microchip/xc32/v3.01/bin/bin/../../lib/gcc/pic32c/8.3.1/../../../../pic32c/lib/thumb/v7e-m+fp/hard\libc_nano.a(lib_a-vsnprintf.o)
 .ARM.attributes
                0x00000e71       0x34 c:/program files/microchip/xc32/v3.01/bin/bin/../../lib/gcc/pic32c/8.3.1/../../../../pic32c/lib/thumb/v7e-m+fp/hard\libc_nano.a(lib_a-div.o)
 .ARM.attributes
                0x00000ea5       0x34 c:/program files/microchip/xc32/v3.01/bin/bin/../../lib/gcc/pic32c/8.3.1/../../../../pic32c/lib/thumb/v7e-m+fp/hard\libc_nano.a(lib_a-getenv_r.o)
 .ARM.attributes
                0x00000ed9       0x34 c:/program files/microchip/xc32/v3.01/bin/bin/../../lib/gcc/pic32c/8.3.1/../../../../pic32c/lib/thumb/v7e-m+fp/hard\libc_nano.a(lib_a-gettzinfo.o)
 .ARM.attributes
                0x00000f0d       0x34 c:/program files/microchip/xc32/v3.01/bin/bin/../../lib/gcc/pic32c/8.3.1/../../../../pic32c/lib/thumb/v7e-m+fp/hard\libc_nano.a(lib_a-mlock.o)
 .ARM.attributes
                0x00000f41       0x32 c:/program files/microchip/xc32/v3.01/bin/bin/../../lib/gcc/pic32c/8.3.1/../../../../pic32c/lib/thumb/v7e-m+fp/hard\libc_nano.a(lib_a-month_lengths.o)
 .ARM.attributes
                0x00000f73       0x34 c:/program files/microchip/xc32/v3.01/bin/bin/../../lib/gcc/pic32c/8.3.1/../../../../pic32c/lib/thumb/v7e-m+fp/hard\libc_nano.a(lib_a-nano-svfprintf.o)
 .ARM.attributes
                0x00000fa7       0x34 c:/program files/microchip/xc32/v3.01/bin/bin/../../lib/gcc/pic32c/8.3.1/../../../../pic32c/lib/thumb/v7e-m+fp/hard\libc_nano.a(lib_a-nano-vfprintf_float.o)
 .ARM.attributes
                0x00000fdb       0x34 c:/program files/microchip/xc32/v3.01/bin/bin/../../lib/gcc/pic32c/8.3.1/../../../../pic32c/lib/thumb/v7e-m+fp/hard\libc_nano.a(lib_a-nano-vfprintf_i.o)
 .ARM.attributes
                0x0000100f       0x34 c:/program files/microchip/xc32/v3.01/bin/bin/../../lib/gcc/pic32c/8.3.1/../../../../pic32c/lib/thumb/v7e-m+fp/hard\libc_nano.a(lib_a-reent.o)
 .ARM.attributes
                0x00001043       0x34 c:/program files/microchip/xc32/v3.01/bin/bin/../../lib/gcc/pic32c/8.3.1/../../../../pic32c/lib/thumb/v7e-m+fp/hard\libc_nano.a(lib_a-sscanf.o)
 .ARM.attributes
                0x00001077       0x34 c:/program files/microchip/xc32/v3.01/bin/bin/../../lib/gcc/pic32c/8.3.1/../../../../pic32c/lib/thumb/v7e-m+fp/hard\libc_nano.a(lib_a-stdio.o)
 .ARM.attributes
                0x000010ab       0x1c c:/program files/microchip/xc32/v3.01/bin/bin/../../lib/gcc/pic32c/8.3.1/../../../../pic32c/lib/thumb/v7e-m+fp/hard\libc_nano.a(lib_a-strcmp.o)
 .ARM.attributes
                0x000010c7       0x34 c:/program files/microchip/xc32/v3.01/bin/bin/../../lib/gcc/pic32c/8.3.1/../../../../pic32c/lib/thumb/v7e-m+fp/hard\libc_nano.a(lib_a-strcpy.o)
 .ARM.attributes
                0x000010fb       0x34 c:/program files/microchip/xc32/v3.01/bin/bin/../../lib/gcc/pic32c/8.3.1/../../../../pic32c/lib/thumb/v7e-m+fp/hard\libc_nano.a(lib_a-strncmp.o)
 .ARM.attributes
                0x0000112f       0x34 c:/program files/microchip/xc32/v3.01/bin/bin/../../lib/gcc/pic32c/8.3.1/../../../../pic32c/lib/thumb/v7e-m+fp/hard\libc_nano.a(lib_a-strtoul.o)
 .ARM.attributes
                0x00001163       0x34 c:/program files/microchip/xc32/v3.01/bin/bin/../../lib/gcc/pic32c/8.3.1/../../../../pic32c/lib/thumb/v7e-m+fp/hard\libc_nano.a(lib_a-__ssputs.o)
 .ARM.attributes
                0x00001197       0x32 c:/program files/microchip/xc32/v3.01/bin/bin/../../lib/gcc/pic32c/8.3.1/../../../../pic32c/lib/thumb/v7e-m+fp/hard\libc_nano.a(lib_a-ctype_.o)
 .ARM.attributes
                0x000011c9       0x34 c:/program files/microchip/xc32/v3.01/bin/bin/../../lib/gcc/pic32c/8.3.1/../../../../pic32c/lib/thumb/v7e-m+fp/hard\libc_nano.a(lib_a-dtoa.o)
 .ARM.attributes
                0x000011fd       0x32 c:/program files/microchip/xc32/v3.01/bin/bin/../../lib/gcc/pic32c/8.3.1/../../../../pic32c/lib/thumb/v7e-m+fp/hard\libc_nano.a(lib_a-environ.o)
 .ARM.attributes
                0x0000122f       0x34 c:/program files/microchip/xc32/v3.01/bin/bin/../../lib/gcc/pic32c/8.3.1/../../../../pic32c/lib/thumb/v7e-m+fp/hard\libc_nano.a(lib_a-envlock.o)
 .ARM.attributes
                0x00001263       0x34 c:/program files/microchip/xc32/v3.01/bin/bin/../../lib/gcc/pic32c/8.3.1/../../../../pic32c/lib/thumb/v7e-m+fp/hard\libc_nano.a(lib_a-localeconv.o)
 .ARM.attributes
                0x00001297       0x1c c:/program files/microchip/xc32/v3.01/bin/bin/../../lib/gcc/pic32c/8.3.1/../../../../pic32c/lib/thumb/v7e-m+fp/hard\libc_nano.a(lib_a-memchr.o)
 .ARM.attributes
                0x000012b3       0x34 c:/program files/microchip/xc32/v3.01/bin/bin/../../lib/gcc/pic32c/8.3.1/../../../../pic32c/lib/thumb/v7e-m+fp/hard\libc_nano.a(lib_a-memmove.o)
 .ARM.attributes
                0x000012e7       0x34 c:/program files/microchip/xc32/v3.01/bin/bin/../../lib/gcc/pic32c/8.3.1/../../../../pic32c/lib/thumb/v7e-m+fp/hard\libc_nano.a(lib_a-mprec.o)
 .ARM.attributes
                0x0000131b       0x34 c:/program files/microchip/xc32/v3.01/bin/bin/../../lib/gcc/pic32c/8.3.1/../../../../pic32c/lib/thumb/v7e-m+fp/hard\libc_nano.a(lib_a-nano-callocr.o)
 .ARM.attributes
                0x0000134f       0x34 c:/program files/microchip/xc32/v3.01/bin/bin/../../lib/gcc/pic32c/8.3.1/../../../../pic32c/lib/thumb/v7e-m+fp/hard\libc_nano.a(lib_a-nano-reallocr.o)
 .ARM.attributes
                0x00001383       0x34 c:/program files/microchip/xc32/v3.01/bin/bin/../../lib/gcc/pic32c/8.3.1/../../../../pic32c/lib/thumb/v7e-m+fp/hard\libc_nano.a(lib_a-nano-svfscanf.o)
 .ARM.attributes
                0x000013b7       0x34 c:/program files/microchip/xc32/v3.01/bin/bin/../../lib/gcc/pic32c/8.3.1/../../../../pic32c/lib/thumb/v7e-m+fp/hard\libc_nano.a(lib_a-nano-vfscanf_i.o)
 .ARM.attributes
                0x000013eb       0x34 c:/program files/microchip/xc32/v3.01/bin/bin/../../lib/gcc/pic32c/8.3.1/../../../../pic32c/lib/thumb/v7e-m+fp/hard\libc_nano.a(lib_a-sccl.o)
 .ARM.attributes
                0x0000141f       0x34 c:/program files/microchip/xc32/v3.01/bin/bin/../../lib/gcc/pic32c/8.3.1/../../../../pic32c/lib/thumb/v7e-m+fp/hard\libc_nano.a(lib_a-strtol.o)
 .ARM.attributes
                0x00001453       0x34 c:/program files/microchip/xc32/v3.01/bin/bin/../../lib/gcc/pic32c/8.3.1/../../../../pic32c/lib/thumb/v7e-m+fp/hard\libc_nano.a(lib_a-ungetc.o)
 .ARM.attributes
                0x00001487       0x34 c:/program files/microchip/xc32/v3.01/bin/bin/../../lib/gcc/pic32c/8.3.1/../../../../pic32c/lib/thumb/v7e-m+fp/hard\libc_nano.a(lib_a-findfp.o)
 .ARM.attributes
                0x000014bb       0x34 c:/program files/microchip/xc32/v3.01/bin/bin/../../lib/gcc/pic32c/8.3.1/../../../../pic32c/lib/thumb/v7e-m+fp/hard\libc_nano.a(lib_a-locale.o)
 .ARM.attributes
                0x000014ef       0x34 c:/program files/microchip/xc32/v3.01/bin/bin/../../lib/gcc/pic32c/8.3.1/../../../../pic32c/lib/thumb/v7e-m+fp/hard\libc_nano.a(lib_a-mbtowc_r.o)
 .ARM.attributes
                0x00001523       0x34 c:/program files/microchip/xc32/v3.01/bin/bin/../../lib/gcc/pic32c/8.3.1/../../../../pic32c/lib/thumb/v7e-m+fp/hard\libc_nano.a(lib_a-nano-msizer.o)
 .ARM.attributes
                0x00001557       0x34 c:/program files/microchip/xc32/v3.01/bin/bin/../../lib/gcc/pic32c/8.3.1/../../../../pic32c/lib/thumb/v7e-m+fp/hard\libc_nano.a(lib_a-wctomb_r.o)
 .ARM.attributes
                0x0000158b       0x34 c:/program files/microchip/xc32/v3.01/bin/bin/../../lib/gcc/pic32c/8.3.1/../../../../pic32c/lib/thumb/v7e-m+fp/hard\libpic32c.a(sbrk.o)
 .ARM.attributes
                0x000015bf       0x1e c:/program files/microchip/xc32/v3.01/bin/bin/../../lib/gcc/pic32c/8.3.1/thumb/v7e-m+fp/hard\libgcc.a(_arm_addsubdf3.o)
 .ARM.attributes
                0x000015dd       0x1e c:/program files/microchip/xc32/v3.01/bin/bin/../../lib/gcc/pic32c/8.3.1/thumb/v7e-m+fp/hard\libgcc.a(_arm_muldivdf3.o)
 .ARM.attributes
                0x000015fb       0x1e c:/program files/microchip/xc32/v3.01/bin/bin/../../lib/gcc/pic32c/8.3.1/thumb/v7e-m+fp/hard\libgcc.a(_arm_cmpdf2.o)
 .ARM.attributes
                0x00001619       0x1e c:/program files/microchip/xc32/v3.01/bin/bin/../../lib/gcc/pic32c/8.3.1/thumb/v7e-m+fp/hard\libgcc.a(_arm_unorddf2.o)
 .ARM.attributes
                0x00001637       0x1e c:/program files/microchip/xc32/v3.01/bin/bin/../../lib/gcc/pic32c/8.3.1/thumb/v7e-m+fp/hard\libgcc.a(_arm_fixdfsi.o)
 .ARM.attributes
                0x00001655       0x1e c:/program files/microchip/xc32/v3.01/bin/bin/../../lib/gcc/pic32c/8.3.1/thumb/v7e-m+fp/hard/crtn.o

.comment        0x00000000       0x53
 .comment       0x00000000       0x53 c:/program files/microchip/xc32/v3.01/bin/bin/../../lib/gcc/pic32c/8.3.1/thumb/v7e-m+fp/hard/crtbegin.o
                                 0x54 (size before relaxing)
 .comment       0x00000053       0x54 build/sam_e54_xpro_winc1500/production/_ext/1159541321/bsp.o
 .comment       0x00000053       0x54 build/sam_e54_xpro_winc1500/production/_ext/138683810/drv_spi.o
 .comment       0x00000053       0x54 build/sam_e54_xpro_winc1500/production/_ext/1232460686/wdrv_winc_eint.o
 .comment       0x00000053       0x54 build/sam_e54_xpro_winc1500/production/_ext/1232460686/wdrv_winc_gpio.o
 .comment       0x00000053       0x54 build/sam_e54_xpro_winc1500/production/_ext/930086057/wdrv_winc_spi.o
 .comment       0x00000053       0x54 build/sam_e54_xpro_winc1500/production/_ext/1121136421/nm_common.o
 .comment       0x00000053       0x54 build/sam_e54_xpro_winc1500/production/_ext/1089847528/m2m_hif.o
 .comment       0x00000053       0x54 build/sam_e54_xpro_winc1500/production/_ext/1089847528/m2m_wifi.o
 .comment       0x00000053       0x54 build/sam_e54_xpro_winc1500/production/_ext/1089847528/nmasic.o
 .comment       0x00000053       0x54 build/sam_e54_xpro_winc1500/production/_ext/1089847528/nmbus.o
 .comment       0x00000053       0x54 build/sam_e54_xpro_winc1500/production/_ext/1089847528/nmdrv.o
 .comment       0x00000053       0x54 build/sam_e54_xpro_winc1500/production/_ext/1089847528/nmspi.o
 .comment       0x00000053       0x54 build/sam_e54_xpro_winc1500/production/_ext/1089847528/m2m_ota.o
 .comment       0x00000053       0x54 build/sam_e54_xpro_winc1500/production/_ext/1089847528/m2m_ssl.o
 .comment       0x00000053       0x54 build/sam_e54_xpro_winc1500/production/_ext/663370141/socket.o
 .comment       0x00000053       0x54 build/sam_e54_xpro_winc1500/production/_ext/663370141/inet_ntop.o
 .comment       0x00000053       0x54 build/sam_e54_xpro_winc1500/production/_ext/663370141/inet_addr.o
 .comment       0x00000053       0x54 build/sam_e54_xpro_winc1500/production/_ext/1114755757/spi_flash.o
 .comment       0x00000053       0x54 build/sam_e54_xpro_winc1500/production/_ext/1114755757/flexible_flash.o
 .comment       0x00000053       0x54 build/sam_e54_xpro_winc1500/production/_ext/550069128/wdrv_winc_osal.o
 .comment       0x00000053       0x54 build/sam_e54_xpro_winc1500/production/_ext/810064134/wdrv_winc.o
 .comment       0x00000053       0x54 build/sam_e54_xpro_winc1500/production/_ext/810064134/wdrv_winc_authctx.o
 .comment       0x00000053       0x54 build/sam_e54_xpro_winc1500/production/_ext/810064134/wdrv_winc_bssctx.o
 .comment       0x00000053       0x54 build/sam_e54_xpro_winc1500/production/_ext/810064134/wdrv_winc_host_file.o
 .comment       0x00000053       0x54 build/sam_e54_xpro_winc1500/production/_ext/810064134/wdrv_winc_socket.o
 .comment       0x00000053       0x54 build/sam_e54_xpro_winc1500/production/_ext/810064134/wdrv_winc_sta.o
 .comment       0x00000053       0x54 build/sam_e54_xpro_winc1500/production/_ext/810064134/wdrv_winc_systime.o
 .comment       0x00000053       0x54 build/sam_e54_xpro_winc1500/production/_ext/583946941/plib_clock.o
 .comment       0x00000053       0x54 build/sam_e54_xpro_winc1500/production/_ext/1643761302/plib_dmac.o
 .comment       0x00000053       0x54 build/sam_e54_xpro_winc1500/production/_ext/2025184588/plib_eic.o
 .comment       0x00000053       0x54 build/sam_e54_xpro_winc1500/production/_ext/581797455/plib_evsys.o
 .comment       0x00000053       0x54 build/sam_e54_xpro_winc1500/production/_ext/1644068109/plib_nvic.o
 .comment       0x00000053       0x54 build/sam_e54_xpro_winc1500/production/_ext/1370199163/plib_nvmctrl.o
 .comment       0x00000053       0x54 build/sam_e54_xpro_winc1500/production/_ext/1644121260/plib_port.o
 .comment       0x00000053       0x54 build/sam_e54_xpro_winc1500/production/_ext/1854354360/plib_sercom4_spi_master.o
 .comment       0x00000053       0x54 build/sam_e54_xpro_winc1500/production/_ext/923560386/plib_sercom2_usart.o
 .comment       0x00000053       0x54 build/sam_e54_xpro_winc1500/production/_ext/1320145242/plib_tc3.o
 .comment       0x00000053       0x54 build/sam_e54_xpro_winc1500/production/_ext/501133612/sys_console.o
 .comment       0x00000053       0x54 build/sam_e54_xpro_winc1500/production/_ext/501133612/sys_console_uart.o
 .comment       0x00000053       0x54 build/sam_e54_xpro_winc1500/production/_ext/1623561264/sys_debug.o
 .comment       0x00000053       0x54 build/sam_e54_xpro_winc1500/production/_ext/895123808/sys_dma.o
 .comment       0x00000053       0x54 build/sam_e54_xpro_winc1500/production/_ext/203683476/sys_int.o
 .comment       0x00000053       0x54 build/sam_e54_xpro_winc1500/production/_ext/323285254/sys_time.o
 .comment       0x00000053       0x54 build/sam_e54_xpro_winc1500/production/_ext/231993977/initialization.o
 .comment       0x00000053       0x54 build/sam_e54_xpro_winc1500/production/_ext/231993977/interrupts.o
 .comment       0x00000053       0x54 build/sam_e54_xpro_winc1500/production/_ext/231993977/exceptions.o
 .comment       0x00000053       0x54 build/sam_e54_xpro_winc1500/production/_ext/231993977/startup_xc32.o
 .comment       0x00000053       0x54 build/sam_e54_xpro_winc1500/production/_ext/231993977/tasks.o
 .comment       0x00000053       0x54 build/sam_e54_xpro_winc1500/production/_ext/1360937237/example.o
 .comment       0x00000053       0x54 build/sam_e54_xpro_winc1500/production/_ext/1360937237/main.o
 .comment       0x00000053       0x54 build/sam_e54_xpro_winc1500/production/_ext/1360937237/app.o
 .comment       0x00000053       0x54 c:/program files/microchip/xc32/v3.01/bin/bin/../../lib/gcc/pic32c/8.3.1/../../../../pic32c/lib/thumb/v7e-m+fp/hard\libpic32c.a(data_init.o)
 .comment       0x00000053       0x54 c:/program files/microchip/xc32/v3.01/bin/bin/../../lib/gcc/pic32c/8.3.1/thumb/v7e-m+fp/hard\libgcc.a(_udivmoddi4.o)
 .comment       0x00000053       0x54 c:/program files/microchip/xc32/v3.01/bin/bin/../../lib/gcc/pic32c/8.3.1/../../../../pic32c/lib/thumb/v7e-m+fp/hard\libc_nano.a(lib_a-impure.o)
 .comment       0x00000053       0x54 c:/program files/microchip/xc32/v3.01/bin/bin/../../lib/gcc/pic32c/8.3.1/../../../../pic32c/lib/thumb/v7e-m+fp/hard\libc_nano.a(lib_a-init.o)
 .comment       0x00000053       0x54 c:/program files/microchip/xc32/v3.01/bin/bin/../../lib/gcc/pic32c/8.3.1/../../../../pic32c/lib/thumb/v7e-m+fp/hard\libc_nano.a(lib_a-malloc.o)
 .comment       0x00000053       0x54 c:/program files/microchip/xc32/v3.01/bin/bin/../../lib/gcc/pic32c/8.3.1/../../../../pic32c/lib/thumb/v7e-m+fp/hard\libc_nano.a(lib_a-memcpy-stub.o)
 .comment       0x00000053       0x54 c:/program files/microchip/xc32/v3.01/bin/bin/../../lib/gcc/pic32c/8.3.1/../../../../pic32c/lib/thumb/v7e-m+fp/hard\libc_nano.a(lib_a-memset.o)
 .comment       0x00000053       0x54 c:/program files/microchip/xc32/v3.01/bin/bin/../../lib/gcc/pic32c/8.3.1/../../../../pic32c/lib/thumb/v7e-m+fp/hard\libc_nano.a(lib_a-mktime.o)
 .comment       0x00000053       0x54 c:/program files/microchip/xc32/v3.01/bin/bin/../../lib/gcc/pic32c/8.3.1/../../../../pic32c/lib/thumb/v7e-m+fp/hard\libc_nano.a(lib_a-nano-freer.o)
 .comment       0x00000053       0x54 c:/program files/microchip/xc32/v3.01/bin/bin/../../lib/gcc/pic32c/8.3.1/../../../../pic32c/lib/thumb/v7e-m+fp/hard\libc_nano.a(lib_a-nano-mallocr.o)
 .comment       0x00000053       0x54 c:/program files/microchip/xc32/v3.01/bin/bin/../../lib/gcc/pic32c/8.3.1/../../../../pic32c/lib/thumb/v7e-m+fp/hard\libc_nano.a(lib_a-sbrkr.o)
 .comment       0x00000053       0x54 c:/program files/microchip/xc32/v3.01/bin/bin/../../lib/gcc/pic32c/8.3.1/../../../../pic32c/lib/thumb/v7e-m+fp/hard\libc_nano.a(lib_a-strchr.o)
 .comment       0x00000053       0x54 c:/program files/microchip/xc32/v3.01/bin/bin/../../lib/gcc/pic32c/8.3.1/../../../../pic32c/lib/thumb/v7e-m+fp/hard\libc_nano.a(lib_a-tzcalc_limits.o)
 .comment       0x00000053       0x54 c:/program files/microchip/xc32/v3.01/bin/bin/../../lib/gcc/pic32c/8.3.1/../../../../pic32c/lib/thumb/v7e-m+fp/hard\libc_nano.a(lib_a-tzset.o)
 .comment       0x00000053       0x54 c:/program files/microchip/xc32/v3.01/bin/bin/../../lib/gcc/pic32c/8.3.1/../../../../pic32c/lib/thumb/v7e-m+fp/hard\libc_nano.a(lib_a-tzset_r.o)
 .comment       0x00000053       0x54 c:/program files/microchip/xc32/v3.01/bin/bin/../../lib/gcc/pic32c/8.3.1/../../../../pic32c/lib/thumb/v7e-m+fp/hard\libc_nano.a(lib_a-tzvars.o)
 .comment       0x00000053       0x54 c:/program files/microchip/xc32/v3.01/bin/bin/../../lib/gcc/pic32c/8.3.1/../../../../pic32c/lib/thumb/v7e-m+fp/hard\libc_nano.a(lib_a-vsnprintf.o)
 .comment       0x00000053       0x54 c:/program files/microchip/xc32/v3.01/bin/bin/../../lib/gcc/pic32c/8.3.1/../../../../pic32c/lib/thumb/v7e-m+fp/hard\libc_nano.a(lib_a-div.o)
 .comment       0x00000053       0x54 c:/program files/microchip/xc32/v3.01/bin/bin/../../lib/gcc/pic32c/8.3.1/../../../../pic32c/lib/thumb/v7e-m+fp/hard\libc_nano.a(lib_a-getenv_r.o)
 .comment       0x00000053       0x54 c:/program files/microchip/xc32/v3.01/bin/bin/../../lib/gcc/pic32c/8.3.1/../../../../pic32c/lib/thumb/v7e-m+fp/hard\libc_nano.a(lib_a-gettzinfo.o)
 .comment       0x00000053       0x54 c:/program files/microchip/xc32/v3.01/bin/bin/../../lib/gcc/pic32c/8.3.1/../../../../pic32c/lib/thumb/v7e-m+fp/hard\libc_nano.a(lib_a-mlock.o)
 .comment       0x00000053       0x54 c:/program files/microchip/xc32/v3.01/bin/bin/../../lib/gcc/pic32c/8.3.1/../../../../pic32c/lib/thumb/v7e-m+fp/hard\libc_nano.a(lib_a-month_lengths.o)
 .comment       0x00000053       0x54 c:/program files/microchip/xc32/v3.01/bin/bin/../../lib/gcc/pic32c/8.3.1/../../../../pic32c/lib/thumb/v7e-m+fp/hard\libc_nano.a(lib_a-nano-svfprintf.o)
 .comment       0x00000053       0x54 c:/program files/microchip/xc32/v3.01/bin/bin/../../lib/gcc/pic32c/8.3.1/../../../../pic32c/lib/thumb/v7e-m+fp/hard\libc_nano.a(lib_a-nano-vfprintf_float.o)
 .comment       0x00000053       0x54 c:/program files/microchip/xc32/v3.01/bin/bin/../../lib/gcc/pic32c/8.3.1/../../../../pic32c/lib/thumb/v7e-m+fp/hard\libc_nano.a(lib_a-nano-vfprintf_i.o)
 .comment       0x00000053       0x54 c:/program files/microchip/xc32/v3.01/bin/bin/../../lib/gcc/pic32c/8.3.1/../../../../pic32c/lib/thumb/v7e-m+fp/hard\libc_nano.a(lib_a-reent.o)
 .comment       0x00000053       0x54 c:/program files/microchip/xc32/v3.01/bin/bin/../../lib/gcc/pic32c/8.3.1/../../../../pic32c/lib/thumb/v7e-m+fp/hard\libc_nano.a(lib_a-sscanf.o)
 .comment       0x00000053       0x54 c:/program files/microchip/xc32/v3.01/bin/bin/../../lib/gcc/pic32c/8.3.1/../../../../pic32c/lib/thumb/v7e-m+fp/hard\libc_nano.a(lib_a-stdio.o)
 .comment       0x00000053       0x54 c:/program files/microchip/xc32/v3.01/bin/bin/../../lib/gcc/pic32c/8.3.1/../../../../pic32c/lib/thumb/v7e-m+fp/hard\libc_nano.a(lib_a-strcpy.o)
 .comment       0x00000053       0x54 c:/program files/microchip/xc32/v3.01/bin/bin/../../lib/gcc/pic32c/8.3.1/../../../../pic32c/lib/thumb/v7e-m+fp/hard\libc_nano.a(lib_a-strncmp.o)
 .comment       0x00000053       0x54 c:/program files/microchip/xc32/v3.01/bin/bin/../../lib/gcc/pic32c/8.3.1/../../../../pic32c/lib/thumb/v7e-m+fp/hard\libc_nano.a(lib_a-strtoul.o)
 .comment       0x00000053       0x54 c:/program files/microchip/xc32/v3.01/bin/bin/../../lib/gcc/pic32c/8.3.1/../../../../pic32c/lib/thumb/v7e-m+fp/hard\libc_nano.a(lib_a-__ssputs.o)
 .comment       0x00000053       0x54 c:/program files/microchip/xc32/v3.01/bin/bin/../../lib/gcc/pic32c/8.3.1/../../../../pic32c/lib/thumb/v7e-m+fp/hard\libc_nano.a(lib_a-ctype_.o)
 .comment       0x00000053       0x54 c:/program files/microchip/xc32/v3.01/bin/bin/../../lib/gcc/pic32c/8.3.1/../../../../pic32c/lib/thumb/v7e-m+fp/hard\libc_nano.a(lib_a-dtoa.o)
 .comment       0x00000053       0x54 c:/program files/microchip/xc32/v3.01/bin/bin/../../lib/gcc/pic32c/8.3.1/../../../../pic32c/lib/thumb/v7e-m+fp/hard\libc_nano.a(lib_a-environ.o)
 .comment       0x00000053       0x54 c:/program files/microchip/xc32/v3.01/bin/bin/../../lib/gcc/pic32c/8.3.1/../../../../pic32c/lib/thumb/v7e-m+fp/hard\libc_nano.a(lib_a-envlock.o)
 .comment       0x00000053       0x54 c:/program files/microchip/xc32/v3.01/bin/bin/../../lib/gcc/pic32c/8.3.1/../../../../pic32c/lib/thumb/v7e-m+fp/hard\libc_nano.a(lib_a-localeconv.o)
 .comment       0x00000053       0x54 c:/program files/microchip/xc32/v3.01/bin/bin/../../lib/gcc/pic32c/8.3.1/../../../../pic32c/lib/thumb/v7e-m+fp/hard\libc_nano.a(lib_a-memmove.o)
 .comment       0x00000053       0x54 c:/program files/microchip/xc32/v3.01/bin/bin/../../lib/gcc/pic32c/8.3.1/../../../../pic32c/lib/thumb/v7e-m+fp/hard\libc_nano.a(lib_a-mprec.o)
 .comment       0x00000053       0x54 c:/program files/microchip/xc32/v3.01/bin/bin/../../lib/gcc/pic32c/8.3.1/../../../../pic32c/lib/thumb/v7e-m+fp/hard\libc_nano.a(lib_a-nano-callocr.o)
 .comment       0x00000053       0x54 c:/program files/microchip/xc32/v3.01/bin/bin/../../lib/gcc/pic32c/8.3.1/../../../../pic32c/lib/thumb/v7e-m+fp/hard\libc_nano.a(lib_a-nano-reallocr.o)
 .comment       0x00000053       0x54 c:/program files/microchip/xc32/v3.01/bin/bin/../../lib/gcc/pic32c/8.3.1/../../../../pic32c/lib/thumb/v7e-m+fp/hard\libc_nano.a(lib_a-nano-svfscanf.o)
 .comment       0x00000053       0x54 c:/program files/microchip/xc32/v3.01/bin/bin/../../lib/gcc/pic32c/8.3.1/../../../../pic32c/lib/thumb/v7e-m+fp/hard\libc_nano.a(lib_a-nano-vfscanf_i.o)
 .comment       0x00000053       0x54 c:/program files/microchip/xc32/v3.01/bin/bin/../../lib/gcc/pic32c/8.3.1/../../../../pic32c/lib/thumb/v7e-m+fp/hard\libc_nano.a(lib_a-sccl.o)
 .comment       0x00000053       0x54 c:/program files/microchip/xc32/v3.01/bin/bin/../../lib/gcc/pic32c/8.3.1/../../../../pic32c/lib/thumb/v7e-m+fp/hard\libc_nano.a(lib_a-strtol.o)
 .comment       0x00000053       0x54 c:/program files/microchip/xc32/v3.01/bin/bin/../../lib/gcc/pic32c/8.3.1/../../../../pic32c/lib/thumb/v7e-m+fp/hard\libc_nano.a(lib_a-ungetc.o)
 .comment       0x00000053       0x54 c:/program files/microchip/xc32/v3.01/bin/bin/../../lib/gcc/pic32c/8.3.1/../../../../pic32c/lib/thumb/v7e-m+fp/hard\libc_nano.a(lib_a-findfp.o)
 .comment       0x00000053       0x54 c:/program files/microchip/xc32/v3.01/bin/bin/../../lib/gcc/pic32c/8.3.1/../../../../pic32c/lib/thumb/v7e-m+fp/hard\libc_nano.a(lib_a-locale.o)
 .comment       0x00000053       0x54 c:/program files/microchip/xc32/v3.01/bin/bin/../../lib/gcc/pic32c/8.3.1/../../../../pic32c/lib/thumb/v7e-m+fp/hard\libc_nano.a(lib_a-mbtowc_r.o)
 .comment       0x00000053       0x54 c:/program files/microchip/xc32/v3.01/bin/bin/../../lib/gcc/pic32c/8.3.1/../../../../pic32c/lib/thumb/v7e-m+fp/hard\libc_nano.a(lib_a-nano-msizer.o)
 .comment       0x00000053       0x54 c:/program files/microchip/xc32/v3.01/bin/bin/../../lib/gcc/pic32c/8.3.1/../../../../pic32c/lib/thumb/v7e-m+fp/hard\libc_nano.a(lib_a-wctomb_r.o)
 .comment       0x00000053       0x54 c:/program files/microchip/xc32/v3.01/bin/bin/../../lib/gcc/pic32c/8.3.1/../../../../pic32c/lib/thumb/v7e-m+fp/hard\libpic32c.a(sbrk.o)

.debug_info     0x00000000    0x7461c
 .debug_info    0x00000000     0x11b0 build/sam_e54_xpro_winc1500/production/_ext/1159541321/bsp.o
 .debug_info    0x000011b0     0x60df build/sam_e54_xpro_winc1500/production/_ext/138683810/drv_spi.o
 .debug_info    0x0000728f     0x11ec build/sam_e54_xpro_winc1500/production/_ext/1232460686/wdrv_winc_eint.o
 .debug_info    0x0000847b     0x1401 build/sam_e54_xpro_winc1500/production/_ext/1232460686/wdrv_winc_gpio.o
 .debug_info    0x0000987c     0x215f build/sam_e54_xpro_winc1500/production/_ext/930086057/wdrv_winc_spi.o
 .debug_info    0x0000b9db     0x1286 build/sam_e54_xpro_winc1500/production/_ext/1121136421/nm_common.o
 .debug_info    0x0000cc61     0x29df build/sam_e54_xpro_winc1500/production/_ext/1089847528/m2m_hif.o
 .debug_info    0x0000f640     0x892f build/sam_e54_xpro_winc1500/production/_ext/1089847528/m2m_wifi.o
 .debug_info    0x00017f6f     0x2601 build/sam_e54_xpro_winc1500/production/_ext/1089847528/nmasic.o
 .debug_info    0x0001a570     0x18d2 build/sam_e54_xpro_winc1500/production/_ext/1089847528/nmbus.o
 .debug_info    0x0001be42     0x1c66 build/sam_e54_xpro_winc1500/production/_ext/1089847528/nmdrv.o
 .debug_info    0x0001daa8     0x2dd9 build/sam_e54_xpro_winc1500/production/_ext/1089847528/nmspi.o
 .debug_info    0x00020881     0x2c17 build/sam_e54_xpro_winc1500/production/_ext/1089847528/m2m_ota.o
 .debug_info    0x00023498     0x24e3 build/sam_e54_xpro_winc1500/production/_ext/1089847528/m2m_ssl.o
 .debug_info    0x0002597b     0x405a build/sam_e54_xpro_winc1500/production/_ext/663370141/socket.o
 .debug_info    0x000299d5     0x1259 build/sam_e54_xpro_winc1500/production/_ext/663370141/inet_ntop.o
 .debug_info    0x0002ac2e     0x11e1 build/sam_e54_xpro_winc1500/production/_ext/663370141/inet_addr.o
 .debug_info    0x0002be0f     0x253f build/sam_e54_xpro_winc1500/production/_ext/1114755757/spi_flash.o
 .debug_info    0x0002e34e     0x12f2 build/sam_e54_xpro_winc1500/production/_ext/1114755757/flexible_flash.o
 .debug_info    0x0002f640     0x11d2 build/sam_e54_xpro_winc1500/production/_ext/550069128/wdrv_winc_osal.o
 .debug_info    0x00030812     0x7955 build/sam_e54_xpro_winc1500/production/_ext/810064134/wdrv_winc.o
 .debug_info    0x00038167     0x222c build/sam_e54_xpro_winc1500/production/_ext/810064134/wdrv_winc_authctx.o
 .debug_info    0x0003a393     0x1968 build/sam_e54_xpro_winc1500/production/_ext/810064134/wdrv_winc_bssctx.o
 .debug_info    0x0003bcfb     0x4841 build/sam_e54_xpro_winc1500/production/_ext/810064134/wdrv_winc_host_file.o
 .debug_info    0x0004053c     0x3845 build/sam_e54_xpro_winc1500/production/_ext/810064134/wdrv_winc_socket.o
 .debug_info    0x00043d81     0x3a80 build/sam_e54_xpro_winc1500/production/_ext/810064134/wdrv_winc_sta.o
 .debug_info    0x00047801     0x35ca build/sam_e54_xpro_winc1500/production/_ext/810064134/wdrv_winc_systime.o
 .debug_info    0x0004adcb      0xc26 build/sam_e54_xpro_winc1500/production/_ext/583946941/plib_clock.o
 .debug_info    0x0004b9f1     0x1ff1 build/sam_e54_xpro_winc1500/production/_ext/1643761302/plib_dmac.o
 .debug_info    0x0004d9e2      0x7e8 build/sam_e54_xpro_winc1500/production/_ext/2025184588/plib_eic.o
 .debug_info    0x0004e1ca      0x3ac build/sam_e54_xpro_winc1500/production/_ext/581797455/plib_evsys.o
 .debug_info    0x0004e576     0x1930 build/sam_e54_xpro_winc1500/production/_ext/1644068109/plib_nvic.o
 .debug_info    0x0004fea6     0x1984 build/sam_e54_xpro_winc1500/production/_ext/1370199163/plib_nvmctrl.o
 .debug_info    0x0005182a     0x1177 build/sam_e54_xpro_winc1500/production/_ext/1644121260/plib_port.o
 .debug_info    0x000529a1     0x1580 build/sam_e54_xpro_winc1500/production/_ext/1854354360/plib_sercom4_spi_master.o
 .debug_info    0x00053f21     0x20c6 build/sam_e54_xpro_winc1500/production/_ext/923560386/plib_sercom2_usart.o
 .debug_info    0x00055fe7      0xd5c build/sam_e54_xpro_winc1500/production/_ext/1320145242/plib_tc3.o
 .debug_info    0x00056d43     0x210e build/sam_e54_xpro_winc1500/production/_ext/501133612/sys_console.o
 .debug_info    0x00058e51     0x2412 build/sam_e54_xpro_winc1500/production/_ext/501133612/sys_console_uart.o
 .debug_info    0x0005b263     0x13eb build/sam_e54_xpro_winc1500/production/_ext/1623561264/sys_debug.o
 .debug_info    0x0005c64e     0x1608 build/sam_e54_xpro_winc1500/production/_ext/895123808/sys_dma.o
 .debug_info    0x0005dc56     0x1252 build/sam_e54_xpro_winc1500/production/_ext/203683476/sys_int.o
 .debug_info    0x0005eea8     0x3f27 build/sam_e54_xpro_winc1500/production/_ext/323285254/sys_time.o
 .debug_info    0x00062dcf     0x4c48 build/sam_e54_xpro_winc1500/production/_ext/231993977/initialization.o
 .debug_info    0x00067a17     0x2570 build/sam_e54_xpro_winc1500/production/_ext/231993977/interrupts.o
 .debug_info    0x00069f87     0x11ac build/sam_e54_xpro_winc1500/production/_ext/231993977/exceptions.o
 .debug_info    0x0006b133      0x9b7 build/sam_e54_xpro_winc1500/production/_ext/231993977/startup_xc32.o
 .debug_info    0x0006baea     0x110b build/sam_e54_xpro_winc1500/production/_ext/231993977/tasks.o
 .debug_info    0x0006cbf5     0x2b04 build/sam_e54_xpro_winc1500/production/_ext/1360937237/example.o
 .debug_info    0x0006f6f9     0x10f5 build/sam_e54_xpro_winc1500/production/_ext/1360937237/main.o
 .debug_info    0x000707ee     0x17cb build/sam_e54_xpro_winc1500/production/_ext/1360937237/app.o
 .debug_info    0x00071fb9      0x2cd c:/program files/microchip/xc32/v3.01/bin/bin/../../lib/gcc/pic32c/8.3.1/../../../../pic32c/lib/thumb/v7e-m+fp/hard\libpic32c.a(data_init.o)
 .debug_info    0x00072286       0x26 c:/program files/microchip/xc32/v3.01/bin/bin/../../lib/gcc/pic32c/8.3.1/thumb/v7e-m+fp/hard\libgcc.a(_aeabi_uldivmod.o)
 .debug_info    0x000722ac     0x1fdc c:/program files/microchip/xc32/v3.01/bin/bin/../../lib/gcc/pic32c/8.3.1/thumb/v7e-m+fp/hard\libgcc.a(_udivmoddi4.o)
 .debug_info    0x00074288       0x26 c:/program files/microchip/xc32/v3.01/bin/bin/../../lib/gcc/pic32c/8.3.1/thumb/v7e-m+fp/hard\libgcc.a(_dvmd_tls.o)
 .debug_info    0x000742ae      0x2b0 c:/program files/microchip/xc32/v3.01/bin/bin/../../lib/gcc/pic32c/8.3.1/../../../../pic32c/lib/thumb/v7e-m+fp/hard\libpic32c.a(sbrk.o)
 .debug_info    0x0007455e       0x26 c:/program files/microchip/xc32/v3.01/bin/bin/../../lib/gcc/pic32c/8.3.1/thumb/v7e-m+fp/hard\libgcc.a(_arm_addsubdf3.o)
 .debug_info    0x00074584       0x26 c:/program files/microchip/xc32/v3.01/bin/bin/../../lib/gcc/pic32c/8.3.1/thumb/v7e-m+fp/hard\libgcc.a(_arm_muldivdf3.o)
 .debug_info    0x000745aa       0x26 c:/program files/microchip/xc32/v3.01/bin/bin/../../lib/gcc/pic32c/8.3.1/thumb/v7e-m+fp/hard\libgcc.a(_arm_cmpdf2.o)
 .debug_info    0x000745d0       0x26 c:/program files/microchip/xc32/v3.01/bin/bin/../../lib/gcc/pic32c/8.3.1/thumb/v7e-m+fp/hard\libgcc.a(_arm_unorddf2.o)
 .debug_info    0x000745f6       0x26 c:/program files/microchip/xc32/v3.01/bin/bin/../../lib/gcc/pic32c/8.3.1/thumb/v7e-m+fp/hard\libgcc.a(_arm_fixdfsi.o)

.debug_abbrev   0x00000000     0xa533
 .debug_abbrev  0x00000000      0x1cb build/sam_e54_xpro_winc1500/production/_ext/1159541321/bsp.o
 .debug_abbrev  0x000001cb      0x5d3 build/sam_e54_xpro_winc1500/production/_ext/138683810/drv_spi.o
 .debug_abbrev  0x0000079e      0x22b build/sam_e54_xpro_winc1500/production/_ext/1232460686/wdrv_winc_eint.o
 .debug_abbrev  0x000009c9      0x1ec build/sam_e54_xpro_winc1500/production/_ext/1232460686/wdrv_winc_gpio.o
 .debug_abbrev  0x00000bb5      0x3de build/sam_e54_xpro_winc1500/production/_ext/930086057/wdrv_winc_spi.o
 .debug_abbrev  0x00000f93      0x283 build/sam_e54_xpro_winc1500/production/_ext/1121136421/nm_common.o
 .debug_abbrev  0x00001216      0x592 build/sam_e54_xpro_winc1500/production/_ext/1089847528/m2m_hif.o
 .debug_abbrev  0x000017a8      0x568 build/sam_e54_xpro_winc1500/production/_ext/1089847528/m2m_wifi.o
 .debug_abbrev  0x00001d10      0x3ce build/sam_e54_xpro_winc1500/production/_ext/1089847528/nmasic.o
 .debug_abbrev  0x000020de      0x363 build/sam_e54_xpro_winc1500/production/_ext/1089847528/nmbus.o
 .debug_abbrev  0x00002441      0x31b build/sam_e54_xpro_winc1500/production/_ext/1089847528/nmdrv.o
 .debug_abbrev  0x0000275c      0x4d9 build/sam_e54_xpro_winc1500/production/_ext/1089847528/nmspi.o
 .debug_abbrev  0x00002c35      0x3d5 build/sam_e54_xpro_winc1500/production/_ext/1089847528/m2m_ota.o
 .debug_abbrev  0x0000300a      0x3c3 build/sam_e54_xpro_winc1500/production/_ext/1089847528/m2m_ssl.o
 .debug_abbrev  0x000033cd      0x584 build/sam_e54_xpro_winc1500/production/_ext/663370141/socket.o
 .debug_abbrev  0x00003951      0x20c build/sam_e54_xpro_winc1500/production/_ext/663370141/inet_ntop.o
 .debug_abbrev  0x00003b5d      0x207 build/sam_e54_xpro_winc1500/production/_ext/663370141/inet_addr.o
 .debug_abbrev  0x00003d64      0x456 build/sam_e54_xpro_winc1500/production/_ext/1114755757/spi_flash.o
 .debug_abbrev  0x000041ba      0x25f build/sam_e54_xpro_winc1500/production/_ext/1114755757/flexible_flash.o
 .debug_abbrev  0x00004419      0x23c build/sam_e54_xpro_winc1500/production/_ext/550069128/wdrv_winc_osal.o
 .debug_abbrev  0x00004655      0x57f build/sam_e54_xpro_winc1500/production/_ext/810064134/wdrv_winc.o
 .debug_abbrev  0x00004bd4      0x3a9 build/sam_e54_xpro_winc1500/production/_ext/810064134/wdrv_winc_authctx.o
 .debug_abbrev  0x00004f7d      0x2e4 build/sam_e54_xpro_winc1500/production/_ext/810064134/wdrv_winc_bssctx.o
 .debug_abbrev  0x00005261      0x4a4 build/sam_e54_xpro_winc1500/production/_ext/810064134/wdrv_winc_host_file.o
 .debug_abbrev  0x00005705      0x39c build/sam_e54_xpro_winc1500/production/_ext/810064134/wdrv_winc_socket.o
 .debug_abbrev  0x00005aa1      0x3bc build/sam_e54_xpro_winc1500/production/_ext/810064134/wdrv_winc_sta.o
 .debug_abbrev  0x00005e5d      0x304 build/sam_e54_xpro_winc1500/production/_ext/810064134/wdrv_winc_systime.o
 .debug_abbrev  0x00006161      0x135 build/sam_e54_xpro_winc1500/production/_ext/583946941/plib_clock.o
 .debug_abbrev  0x00006296      0x447 build/sam_e54_xpro_winc1500/production/_ext/1643761302/plib_dmac.o
 .debug_abbrev  0x000066dd      0x1ab build/sam_e54_xpro_winc1500/production/_ext/2025184588/plib_eic.o
 .debug_abbrev  0x00006888       0x64 build/sam_e54_xpro_winc1500/production/_ext/581797455/plib_evsys.o
 .debug_abbrev  0x000068ec      0x222 build/sam_e54_xpro_winc1500/production/_ext/1644068109/plib_nvic.o
 .debug_abbrev  0x00006b0e      0x353 build/sam_e54_xpro_winc1500/production/_ext/1370199163/plib_nvmctrl.o
 .debug_abbrev  0x00006e61      0x1e9 build/sam_e54_xpro_winc1500/production/_ext/1644121260/plib_port.o
 .debug_abbrev  0x0000704a      0x2ad build/sam_e54_xpro_winc1500/production/_ext/1854354360/plib_sercom4_spi_master.o
 .debug_abbrev  0x000072f7      0x46a build/sam_e54_xpro_winc1500/production/_ext/923560386/plib_sercom2_usart.o
 .debug_abbrev  0x00007761      0x1f9 build/sam_e54_xpro_winc1500/production/_ext/1320145242/plib_tc3.o
 .debug_abbrev  0x0000795a      0x4d3 build/sam_e54_xpro_winc1500/production/_ext/501133612/sys_console.o
 .debug_abbrev  0x00007e2d      0x45b build/sam_e54_xpro_winc1500/production/_ext/501133612/sys_console_uart.o
 .debug_abbrev  0x00008288      0x28d build/sam_e54_xpro_winc1500/production/_ext/1623561264/sys_debug.o
 .debug_abbrev  0x00008515      0x239 build/sam_e54_xpro_winc1500/production/_ext/895123808/sys_dma.o
 .debug_abbrev  0x0000874e      0x253 build/sam_e54_xpro_winc1500/production/_ext/203683476/sys_int.o
 .debug_abbrev  0x000089a1      0x695 build/sam_e54_xpro_winc1500/production/_ext/323285254/sys_time.o
 .debug_abbrev  0x00009036      0x2cf build/sam_e54_xpro_winc1500/production/_ext/231993977/initialization.o
 .debug_abbrev  0x00009305      0x1f6 build/sam_e54_xpro_winc1500/production/_ext/231993977/interrupts.o
 .debug_abbrev  0x000094fb      0x1e0 build/sam_e54_xpro_winc1500/production/_ext/231993977/exceptions.o
 .debug_abbrev  0x000096db      0x209 build/sam_e54_xpro_winc1500/production/_ext/231993977/startup_xc32.o
 .debug_abbrev  0x000098e4      0x212 build/sam_e54_xpro_winc1500/production/_ext/231993977/tasks.o
 .debug_abbrev  0x00009af6      0x325 build/sam_e54_xpro_winc1500/production/_ext/1360937237/example.o
 .debug_abbrev  0x00009e1b      0x219 build/sam_e54_xpro_winc1500/production/_ext/1360937237/main.o
 .debug_abbrev  0x0000a034      0x285 build/sam_e54_xpro_winc1500/production/_ext/1360937237/app.o
 .debug_abbrev  0x0000a2b9       0x2e c:/program files/microchip/xc32/v3.01/bin/bin/../../lib/gcc/pic32c/8.3.1/../../../../pic32c/lib/thumb/v7e-m+fp/hard\libpic32c.a(data_init.o)
 .debug_abbrev  0x0000a2e7       0x14 c:/program files/microchip/xc32/v3.01/bin/bin/../../lib/gcc/pic32c/8.3.1/thumb/v7e-m+fp/hard\libgcc.a(_aeabi_uldivmod.o)
 .debug_abbrev  0x0000a2fb      0x192 c:/program files/microchip/xc32/v3.01/bin/bin/../../lib/gcc/pic32c/8.3.1/thumb/v7e-m+fp/hard\libgcc.a(_udivmoddi4.o)
 .debug_abbrev  0x0000a48d       0x14 c:/program files/microchip/xc32/v3.01/bin/bin/../../lib/gcc/pic32c/8.3.1/thumb/v7e-m+fp/hard\libgcc.a(_dvmd_tls.o)
 .debug_abbrev  0x0000a4a1       0x2e c:/program files/microchip/xc32/v3.01/bin/bin/../../lib/gcc/pic32c/8.3.1/../../../../pic32c/lib/thumb/v7e-m+fp/hard\libpic32c.a(sbrk.o)
 .debug_abbrev  0x0000a4cf       0x14 c:/program files/microchip/xc32/v3.01/bin/bin/../../lib/gcc/pic32c/8.3.1/thumb/v7e-m+fp/hard\libgcc.a(_arm_addsubdf3.o)
 .debug_abbrev  0x0000a4e3       0x14 c:/program files/microchip/xc32/v3.01/bin/bin/../../lib/gcc/pic32c/8.3.1/thumb/v7e-m+fp/hard\libgcc.a(_arm_muldivdf3.o)
 .debug_abbrev  0x0000a4f7       0x14 c:/program files/microchip/xc32/v3.01/bin/bin/../../lib/gcc/pic32c/8.3.1/thumb/v7e-m+fp/hard\libgcc.a(_arm_cmpdf2.o)
 .debug_abbrev  0x0000a50b       0x14 c:/program files/microchip/xc32/v3.01/bin/bin/../../lib/gcc/pic32c/8.3.1/thumb/v7e-m+fp/hard\libgcc.a(_arm_unorddf2.o)
 .debug_abbrev  0x0000a51f       0x14 c:/program files/microchip/xc32/v3.01/bin/bin/../../lib/gcc/pic32c/8.3.1/thumb/v7e-m+fp/hard\libgcc.a(_arm_fixdfsi.o)

.debug_aranges  0x00000000     0x1608
 .debug_aranges
                0x00000000       0x20 build/sam_e54_xpro_winc1500/production/_ext/1159541321/bsp.o
 .debug_aranges
                0x00000020       0xb8 build/sam_e54_xpro_winc1500/production/_ext/138683810/drv_spi.o
 .debug_aranges
                0x000000d8       0x28 build/sam_e54_xpro_winc1500/production/_ext/1232460686/wdrv_winc_eint.o
 .debug_aranges
                0x00000100       0x38 build/sam_e54_xpro_winc1500/production/_ext/1232460686/wdrv_winc_gpio.o
 .debug_aranges
                0x00000138       0x50 build/sam_e54_xpro_winc1500/production/_ext/930086057/wdrv_winc_spi.o
 .debug_aranges
                0x00000188       0x28 build/sam_e54_xpro_winc1500/production/_ext/1121136421/nm_common.o
 .debug_aranges
                0x000001b0       0x80 build/sam_e54_xpro_winc1500/production/_ext/1089847528/m2m_hif.o
 .debug_aranges
                0x00000230      0x290 build/sam_e54_xpro_winc1500/production/_ext/1089847528/m2m_wifi.o
 .debug_aranges
                0x000004c0       0xc8 build/sam_e54_xpro_winc1500/production/_ext/1089847528/nmasic.o
 .debug_aranges
                0x00000588       0x60 build/sam_e54_xpro_winc1500/production/_ext/1089847528/nmbus.o
 .debug_aranges
                0x000005e8       0x58 build/sam_e54_xpro_winc1500/production/_ext/1089847528/nmdrv.o
 .debug_aranges
                0x00000640       0x80 build/sam_e54_xpro_winc1500/production/_ext/1089847528/nmspi.o
 .debug_aranges
                0x000006c0       0x90 build/sam_e54_xpro_winc1500/production/_ext/1089847528/m2m_ota.o
 .debug_aranges
                0x00000750       0x70 build/sam_e54_xpro_winc1500/production/_ext/1089847528/m2m_ssl.o
 .debug_aranges
                0x000007c0       0xe8 build/sam_e54_xpro_winc1500/production/_ext/663370141/socket.o
 .debug_aranges
                0x000008a8       0x20 build/sam_e54_xpro_winc1500/production/_ext/663370141/inet_ntop.o
 .debug_aranges
                0x000008c8       0x20 build/sam_e54_xpro_winc1500/production/_ext/663370141/inet_addr.o
 .debug_aranges
                0x000008e8       0x60 build/sam_e54_xpro_winc1500/production/_ext/1114755757/spi_flash.o
 .debug_aranges
                0x00000948       0x20 build/sam_e54_xpro_winc1500/production/_ext/1114755757/flexible_flash.o
 .debug_aranges
                0x00000968       0x20 build/sam_e54_xpro_winc1500/production/_ext/550069128/wdrv_winc_osal.o
 .debug_aranges
                0x00000988       0xf0 build/sam_e54_xpro_winc1500/production/_ext/810064134/wdrv_winc.o
 .debug_aranges
                0x00000a78       0x48 build/sam_e54_xpro_winc1500/production/_ext/810064134/wdrv_winc_authctx.o
 .debug_aranges
                0x00000ac0       0x48 build/sam_e54_xpro_winc1500/production/_ext/810064134/wdrv_winc_bssctx.o
 .debug_aranges
                0x00000b08       0x48 build/sam_e54_xpro_winc1500/production/_ext/810064134/wdrv_winc_host_file.o
 .debug_aranges
                0x00000b50       0x98 build/sam_e54_xpro_winc1500/production/_ext/810064134/wdrv_winc_socket.o
 .debug_aranges
                0x00000be8       0x40 build/sam_e54_xpro_winc1500/production/_ext/810064134/wdrv_winc_sta.o
 .debug_aranges
                0x00000c28       0x48 build/sam_e54_xpro_winc1500/production/_ext/810064134/wdrv_winc_systime.o
 .debug_aranges
                0x00000c70       0x20 build/sam_e54_xpro_winc1500/production/_ext/583946941/plib_clock.o
 .debug_aranges
                0x00000c90       0xb8 build/sam_e54_xpro_winc1500/production/_ext/1643761302/plib_dmac.o
 .debug_aranges
                0x00000d48       0x40 build/sam_e54_xpro_winc1500/production/_ext/2025184588/plib_eic.o
 .debug_aranges
                0x00000d88       0x20 build/sam_e54_xpro_winc1500/production/_ext/581797455/plib_evsys.o
 .debug_aranges
                0x00000da8       0x38 build/sam_e54_xpro_winc1500/production/_ext/1644068109/plib_nvic.o
 .debug_aranges
                0x00000de0       0xc0 build/sam_e54_xpro_winc1500/production/_ext/1370199163/plib_nvmctrl.o
 .debug_aranges
                0x00000ea0       0x70 build/sam_e54_xpro_winc1500/production/_ext/1644121260/plib_port.o
 .debug_aranges
                0x00000f10       0x60 build/sam_e54_xpro_winc1500/production/_ext/1854354360/plib_sercom4_spi_master.o
 .debug_aranges
                0x00000f70       0xb8 build/sam_e54_xpro_winc1500/production/_ext/923560386/plib_sercom2_usart.o
 .debug_aranges
                0x00001028       0x78 build/sam_e54_xpro_winc1500/production/_ext/1320145242/plib_tc3.o
 .debug_aranges
                0x000010a0       0x88 build/sam_e54_xpro_winc1500/production/_ext/501133612/sys_console.o
 .debug_aranges
                0x00001128       0x68 build/sam_e54_xpro_winc1500/production/_ext/501133612/sys_console_uart.o
 .debug_aranges
                0x00001190       0x48 build/sam_e54_xpro_winc1500/production/_ext/1623561264/sys_debug.o
 .debug_aranges
                0x000011d8       0x28 build/sam_e54_xpro_winc1500/production/_ext/895123808/sys_dma.o
 .debug_aranges
                0x00001200       0x40 build/sam_e54_xpro_winc1500/production/_ext/203683476/sys_int.o
 .debug_aranges
                0x00001240      0x130 build/sam_e54_xpro_winc1500/production/_ext/323285254/sys_time.o
 .debug_aranges
                0x00001370       0x20 build/sam_e54_xpro_winc1500/production/_ext/231993977/initialization.o
 .debug_aranges
                0x00001390       0x20 build/sam_e54_xpro_winc1500/production/_ext/231993977/interrupts.o
 .debug_aranges
                0x000013b0       0x48 build/sam_e54_xpro_winc1500/production/_ext/231993977/exceptions.o
 .debug_aranges
                0x000013f8       0x28 build/sam_e54_xpro_winc1500/production/_ext/231993977/startup_xc32.o
 .debug_aranges
                0x00001420       0x20 build/sam_e54_xpro_winc1500/production/_ext/231993977/tasks.o
 .debug_aranges
                0x00001440       0x40 build/sam_e54_xpro_winc1500/production/_ext/1360937237/example.o
 .debug_aranges
                0x00001480       0x20 build/sam_e54_xpro_winc1500/production/_ext/1360937237/main.o
 .debug_aranges
                0x000014a0       0x28 build/sam_e54_xpro_winc1500/production/_ext/1360937237/app.o
 .debug_aranges
                0x000014c8       0x20 c:/program files/microchip/xc32/v3.01/bin/bin/../../lib/gcc/pic32c/8.3.1/../../../../pic32c/lib/thumb/v7e-m+fp/hard\libpic32c.a(data_init.o)
 .debug_aranges
                0x000014e8       0x20 c:/program files/microchip/xc32/v3.01/bin/bin/../../lib/gcc/pic32c/8.3.1/thumb/v7e-m+fp/hard\libgcc.a(_aeabi_uldivmod.o)
 .debug_aranges
                0x00001508       0x20 c:/program files/microchip/xc32/v3.01/bin/bin/../../lib/gcc/pic32c/8.3.1/thumb/v7e-m+fp/hard\libgcc.a(_udivmoddi4.o)
 .debug_aranges
                0x00001528       0x20 c:/program files/microchip/xc32/v3.01/bin/bin/../../lib/gcc/pic32c/8.3.1/thumb/v7e-m+fp/hard\libgcc.a(_dvmd_tls.o)
 .debug_aranges
                0x00001548       0x20 c:/program files/microchip/xc32/v3.01/bin/bin/../../lib/gcc/pic32c/8.3.1/../../../../pic32c/lib/thumb/v7e-m+fp/hard\libpic32c.a(sbrk.o)
 .debug_aranges
                0x00001568       0x20 c:/program files/microchip/xc32/v3.01/bin/bin/../../lib/gcc/pic32c/8.3.1/thumb/v7e-m+fp/hard\libgcc.a(_arm_addsubdf3.o)
 .debug_aranges
                0x00001588       0x20 c:/program files/microchip/xc32/v3.01/bin/bin/../../lib/gcc/pic32c/8.3.1/thumb/v7e-m+fp/hard\libgcc.a(_arm_muldivdf3.o)
 .debug_aranges
                0x000015a8       0x20 c:/program files/microchip/xc32/v3.01/bin/bin/../../lib/gcc/pic32c/8.3.1/thumb/v7e-m+fp/hard\libgcc.a(_arm_cmpdf2.o)
 .debug_aranges
                0x000015c8       0x20 c:/program files/microchip/xc32/v3.01/bin/bin/../../lib/gcc/pic32c/8.3.1/thumb/v7e-m+fp/hard\libgcc.a(_arm_unorddf2.o)
 .debug_aranges
                0x000015e8       0x20 c:/program files/microchip/xc32/v3.01/bin/bin/../../lib/gcc/pic32c/8.3.1/thumb/v7e-m+fp/hard\libgcc.a(_arm_fixdfsi.o)

.debug_ranges   0x00000000     0x1dd8
 .debug_ranges  0x00000000       0x10 build/sam_e54_xpro_winc1500/production/_ext/1159541321/bsp.o
 .debug_ranges  0x00000010      0x190 build/sam_e54_xpro_winc1500/production/_ext/138683810/drv_spi.o
 .debug_ranges  0x000001a0       0x18 build/sam_e54_xpro_winc1500/production/_ext/1232460686/wdrv_winc_eint.o
 .debug_ranges  0x000001b8       0x28 build/sam_e54_xpro_winc1500/production/_ext/1232460686/wdrv_winc_gpio.o
 .debug_ranges  0x000001e0       0x70 build/sam_e54_xpro_winc1500/production/_ext/930086057/wdrv_winc_spi.o
 .debug_ranges  0x00000250       0x18 build/sam_e54_xpro_winc1500/production/_ext/1121136421/nm_common.o
 .debug_ranges  0x00000268       0xe0 build/sam_e54_xpro_winc1500/production/_ext/1089847528/m2m_hif.o
 .debug_ranges  0x00000348      0x3b0 build/sam_e54_xpro_winc1500/production/_ext/1089847528/m2m_wifi.o
 .debug_ranges  0x000006f8       0xd0 build/sam_e54_xpro_winc1500/production/_ext/1089847528/nmasic.o
 .debug_ranges  0x000007c8       0x80 build/sam_e54_xpro_winc1500/production/_ext/1089847528/nmbus.o
 .debug_ranges  0x00000848       0x48 build/sam_e54_xpro_winc1500/production/_ext/1089847528/nmdrv.o
 .debug_ranges  0x00000890      0x210 build/sam_e54_xpro_winc1500/production/_ext/1089847528/nmspi.o
 .debug_ranges  0x00000aa0       0x80 build/sam_e54_xpro_winc1500/production/_ext/1089847528/m2m_ota.o
 .debug_ranges  0x00000b20       0xb8 build/sam_e54_xpro_winc1500/production/_ext/1089847528/m2m_ssl.o
 .debug_ranges  0x00000bd8      0x230 build/sam_e54_xpro_winc1500/production/_ext/663370141/socket.o
 .debug_ranges  0x00000e08       0x10 build/sam_e54_xpro_winc1500/production/_ext/663370141/inet_ntop.o
 .debug_ranges  0x00000e18       0x10 build/sam_e54_xpro_winc1500/production/_ext/663370141/inet_addr.o
 .debug_ranges  0x00000e28       0x98 build/sam_e54_xpro_winc1500/production/_ext/1114755757/spi_flash.o
 .debug_ranges  0x00000ec0       0x10 build/sam_e54_xpro_winc1500/production/_ext/1114755757/flexible_flash.o
 .debug_ranges  0x00000ed0       0x10 build/sam_e54_xpro_winc1500/production/_ext/550069128/wdrv_winc_osal.o
 .debug_ranges  0x00000ee0      0x158 build/sam_e54_xpro_winc1500/production/_ext/810064134/wdrv_winc.o
 .debug_ranges  0x00001038       0x88 build/sam_e54_xpro_winc1500/production/_ext/810064134/wdrv_winc_authctx.o
 .debug_ranges  0x000010c0       0x50 build/sam_e54_xpro_winc1500/production/_ext/810064134/wdrv_winc_bssctx.o
 .debug_ranges  0x00001110       0xc8 build/sam_e54_xpro_winc1500/production/_ext/810064134/wdrv_winc_host_file.o
 .debug_ranges  0x000011d8       0x88 build/sam_e54_xpro_winc1500/production/_ext/810064134/wdrv_winc_socket.o
 .debug_ranges  0x00001260       0x78 build/sam_e54_xpro_winc1500/production/_ext/810064134/wdrv_winc_sta.o
 .debug_ranges  0x000012d8       0x38 build/sam_e54_xpro_winc1500/production/_ext/810064134/wdrv_winc_systime.o
 .debug_ranges  0x00001310       0x10 build/sam_e54_xpro_winc1500/production/_ext/583946941/plib_clock.o
 .debug_ranges  0x00001320       0xe0 build/sam_e54_xpro_winc1500/production/_ext/1643761302/plib_dmac.o
 .debug_ranges  0x00001400       0x30 build/sam_e54_xpro_winc1500/production/_ext/2025184588/plib_eic.o
 .debug_ranges  0x00001430       0x10 build/sam_e54_xpro_winc1500/production/_ext/581797455/plib_evsys.o
 .debug_ranges  0x00001440       0x28 build/sam_e54_xpro_winc1500/production/_ext/1644068109/plib_nvic.o
 .debug_ranges  0x00001468       0xb0 build/sam_e54_xpro_winc1500/production/_ext/1370199163/plib_nvmctrl.o
 .debug_ranges  0x00001518       0x60 build/sam_e54_xpro_winc1500/production/_ext/1644121260/plib_port.o
 .debug_ranges  0x00001578       0x50 build/sam_e54_xpro_winc1500/production/_ext/1854354360/plib_sercom4_spi_master.o
 .debug_ranges  0x000015c8      0x1a0 build/sam_e54_xpro_winc1500/production/_ext/923560386/plib_sercom2_usart.o
 .debug_ranges  0x00001768       0x68 build/sam_e54_xpro_winc1500/production/_ext/1320145242/plib_tc3.o
 .debug_ranges  0x000017d0       0x90 build/sam_e54_xpro_winc1500/production/_ext/501133612/sys_console.o
 .debug_ranges  0x00001860      0x1a8 build/sam_e54_xpro_winc1500/production/_ext/501133612/sys_console_uart.o
 .debug_ranges  0x00001a08       0x38 build/sam_e54_xpro_winc1500/production/_ext/1623561264/sys_debug.o
 .debug_ranges  0x00001a40       0x18 build/sam_e54_xpro_winc1500/production/_ext/895123808/sys_dma.o
 .debug_ranges  0x00001a58       0x30 build/sam_e54_xpro_winc1500/production/_ext/203683476/sys_int.o
 .debug_ranges  0x00001a88      0x180 build/sam_e54_xpro_winc1500/production/_ext/323285254/sys_time.o
 .debug_ranges  0x00001c08       0x10 build/sam_e54_xpro_winc1500/production/_ext/231993977/initialization.o
 .debug_ranges  0x00001c18       0x10 build/sam_e54_xpro_winc1500/production/_ext/231993977/interrupts.o
 .debug_ranges  0x00001c28       0x38 build/sam_e54_xpro_winc1500/production/_ext/231993977/exceptions.o
 .debug_ranges  0x00001c60       0x18 build/sam_e54_xpro_winc1500/production/_ext/231993977/startup_xc32.o
 .debug_ranges  0x00001c78       0x10 build/sam_e54_xpro_winc1500/production/_ext/231993977/tasks.o
 .debug_ranges  0x00001c88       0x30 build/sam_e54_xpro_winc1500/production/_ext/1360937237/example.o
 .debug_ranges  0x00001cb8       0x10 build/sam_e54_xpro_winc1500/production/_ext/1360937237/main.o
 .debug_ranges  0x00001cc8       0x18 build/sam_e54_xpro_winc1500/production/_ext/1360937237/app.o
 .debug_ranges  0x00001ce0       0x10 c:/program files/microchip/xc32/v3.01/bin/bin/../../lib/gcc/pic32c/8.3.1/../../../../pic32c/lib/thumb/v7e-m+fp/hard\libpic32c.a(data_init.o)
 .debug_ranges  0x00001cf0       0xd8 c:/program files/microchip/xc32/v3.01/bin/bin/../../lib/gcc/pic32c/8.3.1/thumb/v7e-m+fp/hard\libgcc.a(_udivmoddi4.o)
 .debug_ranges  0x00001dc8       0x10 c:/program files/microchip/xc32/v3.01/bin/bin/../../lib/gcc/pic32c/8.3.1/../../../../pic32c/lib/thumb/v7e-m+fp/hard\libpic32c.a(sbrk.o)

.debug_line     0x00000000    0x1ac07
 .debug_line    0x00000000      0x215 build/sam_e54_xpro_winc1500/production/_ext/1159541321/bsp.o
 .debug_line    0x00000215     0x1722 build/sam_e54_xpro_winc1500/production/_ext/138683810/drv_spi.o
 .debug_line    0x00001937      0x319 build/sam_e54_xpro_winc1500/production/_ext/1232460686/wdrv_winc_eint.o
 .debug_line    0x00001c50      0x338 build/sam_e54_xpro_winc1500/production/_ext/1232460686/wdrv_winc_gpio.o
 .debug_line    0x00001f88      0x7f1 build/sam_e54_xpro_winc1500/production/_ext/930086057/wdrv_winc_spi.o
 .debug_line    0x00002779      0x39d build/sam_e54_xpro_winc1500/production/_ext/1121136421/nm_common.o
 .debug_line    0x00002b16      0xe92 build/sam_e54_xpro_winc1500/production/_ext/1089847528/m2m_hif.o
 .debug_line    0x000039a8     0x20f4 build/sam_e54_xpro_winc1500/production/_ext/1089847528/m2m_wifi.o
 .debug_line    0x00005a9c      0xd67 build/sam_e54_xpro_winc1500/production/_ext/1089847528/nmasic.o
 .debug_line    0x00006803      0x58b build/sam_e54_xpro_winc1500/production/_ext/1089847528/nmbus.o
 .debug_line    0x00006d8e      0x7d9 build/sam_e54_xpro_winc1500/production/_ext/1089847528/nmdrv.o
 .debug_line    0x00007567     0x1070 build/sam_e54_xpro_winc1500/production/_ext/1089847528/nmspi.o
 .debug_line    0x000085d7      0x97d build/sam_e54_xpro_winc1500/production/_ext/1089847528/m2m_ota.o
 .debug_line    0x00008f54      0x94b build/sam_e54_xpro_winc1500/production/_ext/1089847528/m2m_ssl.o
 .debug_line    0x0000989f     0x1455 build/sam_e54_xpro_winc1500/production/_ext/663370141/socket.o
 .debug_line    0x0000acf4      0x3e9 build/sam_e54_xpro_winc1500/production/_ext/663370141/inet_ntop.o
 .debug_line    0x0000b0dd      0x3bf build/sam_e54_xpro_winc1500/production/_ext/663370141/inet_addr.o
 .debug_line    0x0000b49c      0xa4e build/sam_e54_xpro_winc1500/production/_ext/1114755757/spi_flash.o
 .debug_line    0x0000beea      0x3b5 build/sam_e54_xpro_winc1500/production/_ext/1114755757/flexible_flash.o
 .debug_line    0x0000c29f      0x312 build/sam_e54_xpro_winc1500/production/_ext/550069128/wdrv_winc_osal.o
 .debug_line    0x0000c5b1     0x1c64 build/sam_e54_xpro_winc1500/production/_ext/810064134/wdrv_winc.o
 .debug_line    0x0000e215      0x757 build/sam_e54_xpro_winc1500/production/_ext/810064134/wdrv_winc_authctx.o
 .debug_line    0x0000e96c      0x51b build/sam_e54_xpro_winc1500/production/_ext/810064134/wdrv_winc_bssctx.o
 .debug_line    0x0000ee87     0x1032 build/sam_e54_xpro_winc1500/production/_ext/810064134/wdrv_winc_host_file.o
 .debug_line    0x0000feb9      0xa06 build/sam_e54_xpro_winc1500/production/_ext/810064134/wdrv_winc_socket.o
 .debug_line    0x000108bf      0x9fc build/sam_e54_xpro_winc1500/production/_ext/810064134/wdrv_winc_sta.o
 .debug_line    0x000112bb      0x72a build/sam_e54_xpro_winc1500/production/_ext/810064134/wdrv_winc_systime.o
 .debug_line    0x000119e5      0x33b build/sam_e54_xpro_winc1500/production/_ext/583946941/plib_clock.o
 .debug_line    0x00011d20      0x7e9 build/sam_e54_xpro_winc1500/production/_ext/1643761302/plib_dmac.o
 .debug_line    0x00012509      0x2e8 build/sam_e54_xpro_winc1500/production/_ext/2025184588/plib_eic.o
 .debug_line    0x000127f1      0x13f build/sam_e54_xpro_winc1500/production/_ext/581797455/plib_evsys.o
 .debug_line    0x00012930      0x61f build/sam_e54_xpro_winc1500/production/_ext/1644068109/plib_nvic.o
 .debug_line    0x00012f4f      0x5a4 build/sam_e54_xpro_winc1500/production/_ext/1370199163/plib_nvmctrl.o
 .debug_line    0x000134f3      0x385 build/sam_e54_xpro_winc1500/production/_ext/1644121260/plib_port.o
 .debug_line    0x00013878      0x7a3 build/sam_e54_xpro_winc1500/production/_ext/1854354360/plib_sercom4_spi_master.o
 .debug_line    0x0001401b      0xbcf build/sam_e54_xpro_winc1500/production/_ext/923560386/plib_sercom2_usart.o
 .debug_line    0x00014bea      0x3ca build/sam_e54_xpro_winc1500/production/_ext/1320145242/plib_tc3.o
 .debug_line    0x00014fb4      0x7a3 build/sam_e54_xpro_winc1500/production/_ext/501133612/sys_console.o
 .debug_line    0x00015757      0x80e build/sam_e54_xpro_winc1500/production/_ext/501133612/sys_console_uart.o
 .debug_line    0x00015f65      0x339 build/sam_e54_xpro_winc1500/production/_ext/1623561264/sys_debug.o
 .debug_line    0x0001629e      0x24b build/sam_e54_xpro_winc1500/production/_ext/895123808/sys_dma.o
 .debug_line    0x000164e9      0x333 build/sam_e54_xpro_winc1500/production/_ext/203683476/sys_int.o
 .debug_line    0x0001681c     0x1371 build/sam_e54_xpro_winc1500/production/_ext/323285254/sys_time.o
 .debug_line    0x00017b8d      0x91b build/sam_e54_xpro_winc1500/production/_ext/231993977/initialization.o
 .debug_line    0x000184a8      0x2cf build/sam_e54_xpro_winc1500/production/_ext/231993977/interrupts.o
 .debug_line    0x00018777      0x2ea build/sam_e54_xpro_winc1500/production/_ext/231993977/exceptions.o
 .debug_line    0x00018a61      0x2c4 build/sam_e54_xpro_winc1500/production/_ext/231993977/startup_xc32.o
 .debug_line    0x00018d25      0x2d9 build/sam_e54_xpro_winc1500/production/_ext/231993977/tasks.o
 .debug_line    0x00018ffe      0x6ea build/sam_e54_xpro_winc1500/production/_ext/1360937237/example.o
 .debug_line    0x000196e8      0x280 build/sam_e54_xpro_winc1500/production/_ext/1360937237/main.o
 .debug_line    0x00019968      0x431 build/sam_e54_xpro_winc1500/production/_ext/1360937237/app.o
 .debug_line    0x00019d99      0x110 c:/program files/microchip/xc32/v3.01/bin/bin/../../lib/gcc/pic32c/8.3.1/../../../../pic32c/lib/thumb/v7e-m+fp/hard\libpic32c.a(data_init.o)
 .debug_line    0x00019ea9       0x9c c:/program files/microchip/xc32/v3.01/bin/bin/../../lib/gcc/pic32c/8.3.1/thumb/v7e-m+fp/hard\libgcc.a(_aeabi_uldivmod.o)
 .debug_line    0x00019f45      0x57e c:/program files/microchip/xc32/v3.01/bin/bin/../../lib/gcc/pic32c/8.3.1/thumb/v7e-m+fp/hard\libgcc.a(_udivmoddi4.o)
 .debug_line    0x0001a4c3       0x9c c:/program files/microchip/xc32/v3.01/bin/bin/../../lib/gcc/pic32c/8.3.1/thumb/v7e-m+fp/hard\libgcc.a(_dvmd_tls.o)
 .debug_line    0x0001a55f       0xb5 c:/program files/microchip/xc32/v3.01/bin/bin/../../lib/gcc/pic32c/8.3.1/../../../../pic32c/lib/thumb/v7e-m+fp/hard\libpic32c.a(sbrk.o)
 .debug_line    0x0001a614      0x1c1 c:/program files/microchip/xc32/v3.01/bin/bin/../../lib/gcc/pic32c/8.3.1/thumb/v7e-m+fp/hard\libgcc.a(_arm_addsubdf3.o)
 .debug_line    0x0001a7d5      0x1da c:/program files/microchip/xc32/v3.01/bin/bin/../../lib/gcc/pic32c/8.3.1/thumb/v7e-m+fp/hard\libgcc.a(_arm_muldivdf3.o)
 .debug_line    0x0001a9af       0xf9 c:/program files/microchip/xc32/v3.01/bin/bin/../../lib/gcc/pic32c/8.3.1/thumb/v7e-m+fp/hard\libgcc.a(_arm_cmpdf2.o)
 .debug_line    0x0001aaa8       0xaa c:/program files/microchip/xc32/v3.01/bin/bin/../../lib/gcc/pic32c/8.3.1/thumb/v7e-m+fp/hard\libgcc.a(_arm_unorddf2.o)
 .debug_line    0x0001ab52       0xb5 c:/program files/microchip/xc32/v3.01/bin/bin/../../lib/gcc/pic32c/8.3.1/thumb/v7e-m+fp/hard\libgcc.a(_arm_fixdfsi.o)

.debug_str      0x00000000     0x305d
 .debug_str     0x00000000        0xe build/sam_e54_xpro_winc1500/production/_ext/1159541321/bsp.o
 .debug_str     0x0000000e      0x292 build/sam_e54_xpro_winc1500/production/_ext/138683810/drv_spi.o
 .debug_str     0x000002a0       0x4c build/sam_e54_xpro_winc1500/production/_ext/1232460686/wdrv_winc_eint.o
 .debug_str     0x000002ec        0xe build/sam_e54_xpro_winc1500/production/_ext/1232460686/wdrv_winc_gpio.o
 .debug_str     0x000002fa      0x127 build/sam_e54_xpro_winc1500/production/_ext/930086057/wdrv_winc_spi.o
 .debug_str     0x00000421       0x91 build/sam_e54_xpro_winc1500/production/_ext/1121136421/nm_common.o
 .debug_str     0x000004b2      0x127 build/sam_e54_xpro_winc1500/production/_ext/1089847528/m2m_hif.o
 .debug_str     0x000005d9      0x452 build/sam_e54_xpro_winc1500/production/_ext/1089847528/m2m_wifi.o
 .debug_str     0x00000a2b       0xd4 build/sam_e54_xpro_winc1500/production/_ext/1089847528/nmasic.o
 .debug_str     0x00000aff       0xa6 build/sam_e54_xpro_winc1500/production/_ext/1089847528/nmbus.o
 .debug_str     0x00000ba5      0x17e build/sam_e54_xpro_winc1500/production/_ext/1089847528/nmdrv.o
 .debug_str     0x00000d23       0xcf build/sam_e54_xpro_winc1500/production/_ext/1089847528/nmspi.o
 .debug_str     0x00000df2      0x152 build/sam_e54_xpro_winc1500/production/_ext/1089847528/m2m_ota.o
 .debug_str     0x00000f44       0xb1 build/sam_e54_xpro_winc1500/production/_ext/1089847528/m2m_ssl.o
 .debug_str     0x00000ff5      0x1c9 build/sam_e54_xpro_winc1500/production/_ext/663370141/socket.o
 .debug_str     0x000011be        0xe build/sam_e54_xpro_winc1500/production/_ext/663370141/inet_ntop.o
 .debug_str     0x000011cc        0xe build/sam_e54_xpro_winc1500/production/_ext/663370141/inet_addr.o
 .debug_str     0x000011da       0xdc build/sam_e54_xpro_winc1500/production/_ext/1114755757/spi_flash.o
 .debug_str     0x000012b6       0x1d build/sam_e54_xpro_winc1500/production/_ext/1114755757/flexible_flash.o
 .debug_str     0x000012d3       0x38 build/sam_e54_xpro_winc1500/production/_ext/550069128/wdrv_winc_osal.o
 .debug_str     0x0000130b      0x45b build/sam_e54_xpro_winc1500/production/_ext/810064134/wdrv_winc.o
 .debug_str     0x00001766       0x77 build/sam_e54_xpro_winc1500/production/_ext/810064134/wdrv_winc_authctx.o
 .debug_str     0x000017dd       0x16 build/sam_e54_xpro_winc1500/production/_ext/810064134/wdrv_winc_bssctx.o
 .debug_str     0x000017f3      0x191 build/sam_e54_xpro_winc1500/production/_ext/810064134/wdrv_winc_host_file.o
 .debug_str     0x00001984      0x16e build/sam_e54_xpro_winc1500/production/_ext/810064134/wdrv_winc_socket.o
 .debug_str     0x00001af2      0x1cf build/sam_e54_xpro_winc1500/production/_ext/810064134/wdrv_winc_sta.o
 .debug_str     0x00001cc1       0xc3 build/sam_e54_xpro_winc1500/production/_ext/810064134/wdrv_winc_systime.o
 .debug_str     0x00001d84       0x1e build/sam_e54_xpro_winc1500/production/_ext/583946941/plib_clock.o
 .debug_str     0x00001da2       0x5a build/sam_e54_xpro_winc1500/production/_ext/1643761302/plib_dmac.o
 .debug_str     0x00001dfc        0x9 build/sam_e54_xpro_winc1500/production/_ext/2025184588/plib_eic.o
 .debug_str     0x00001e05        0x0 build/sam_e54_xpro_winc1500/production/_ext/581797455/plib_evsys.o
 .debug_str     0x00001e05        0xa build/sam_e54_xpro_winc1500/production/_ext/1644068109/plib_nvic.o
 .debug_str     0x00001e0f       0x29 build/sam_e54_xpro_winc1500/production/_ext/1370199163/plib_nvmctrl.o
 .debug_str     0x00001e38        0xb build/sam_e54_xpro_winc1500/production/_ext/1644121260/plib_port.o
 .debug_str     0x00001e43      0x149 build/sam_e54_xpro_winc1500/production/_ext/1854354360/plib_sercom4_spi_master.o
 .debug_str     0x00001f8c      0x1c8 build/sam_e54_xpro_winc1500/production/_ext/923560386/plib_sercom2_usart.o
 .debug_str     0x00002154       0xbb build/sam_e54_xpro_winc1500/production/_ext/1320145242/plib_tc3.o
 .debug_str     0x0000220f       0x46 build/sam_e54_xpro_winc1500/production/_ext/501133612/sys_console.o
 .debug_str     0x00002255       0xa1 build/sam_e54_xpro_winc1500/production/_ext/501133612/sys_console_uart.o
 .debug_str     0x000022f6        0xe build/sam_e54_xpro_winc1500/production/_ext/1623561264/sys_debug.o
 .debug_str     0x00002304       0x3e build/sam_e54_xpro_winc1500/production/_ext/895123808/sys_dma.o
 .debug_str     0x00002342       0x32 build/sam_e54_xpro_winc1500/production/_ext/203683476/sys_int.o
 .debug_str     0x00002374      0x14e build/sam_e54_xpro_winc1500/production/_ext/323285254/sys_time.o
 .debug_str     0x000024c2      0x2ba build/sam_e54_xpro_winc1500/production/_ext/231993977/initialization.o
 .debug_str     0x0000277c        0xe build/sam_e54_xpro_winc1500/production/_ext/231993977/interrupts.o
 .debug_str     0x0000278a        0xe build/sam_e54_xpro_winc1500/production/_ext/231993977/exceptions.o
 .debug_str     0x00002798       0x2f build/sam_e54_xpro_winc1500/production/_ext/231993977/startup_xc32.o
 .debug_str     0x000027c7       0x28 build/sam_e54_xpro_winc1500/production/_ext/231993977/tasks.o
 .debug_str     0x000027ef      0x13d build/sam_e54_xpro_winc1500/production/_ext/1360937237/example.o
 .debug_str     0x0000292c       0x27 build/sam_e54_xpro_winc1500/production/_ext/1360937237/main.o
 .debug_str     0x00002953       0x6b build/sam_e54_xpro_winc1500/production/_ext/1360937237/app.o
 .debug_str     0x000029be        0x0 c:/program files/microchip/xc32/v3.01/bin/bin/../../lib/gcc/pic32c/8.3.1/../../../../pic32c/lib/thumb/v7e-m+fp/hard\libpic32c.a(data_init.o)
 .debug_str     0x000029be       0xee c:/program files/microchip/xc32/v3.01/bin/bin/../../lib/gcc/pic32c/8.3.1/thumb/v7e-m+fp/hard\libgcc.a(_aeabi_uldivmod.o)
 .debug_str     0x00002aac        0x0 c:/program files/microchip/xc32/v3.01/bin/bin/../../lib/gcc/pic32c/8.3.1/thumb/v7e-m+fp/hard\libgcc.a(_udivmoddi4.o)
 .debug_str     0x00002aac       0xf2 c:/program files/microchip/xc32/v3.01/bin/bin/../../lib/gcc/pic32c/8.3.1/thumb/v7e-m+fp/hard\libgcc.a(_dvmd_tls.o)
 .debug_str     0x00002b9e        0x0 c:/program files/microchip/xc32/v3.01/bin/bin/../../lib/gcc/pic32c/8.3.1/../../../../pic32c/lib/thumb/v7e-m+fp/hard\libpic32c.a(sbrk.o)
 .debug_str     0x00002b9e       0xf3 c:/program files/microchip/xc32/v3.01/bin/bin/../../lib/gcc/pic32c/8.3.1/thumb/v7e-m+fp/hard\libgcc.a(_arm_addsubdf3.o)
 .debug_str     0x00002c91       0xf3 c:/program files/microchip/xc32/v3.01/bin/bin/../../lib/gcc/pic32c/8.3.1/thumb/v7e-m+fp/hard\libgcc.a(_arm_muldivdf3.o)
 .debug_str     0x00002d84       0xf3 c:/program files/microchip/xc32/v3.01/bin/bin/../../lib/gcc/pic32c/8.3.1/thumb/v7e-m+fp/hard\libgcc.a(_arm_cmpdf2.o)
 .debug_str     0x00002e77       0xf3 c:/program files/microchip/xc32/v3.01/bin/bin/../../lib/gcc/pic32c/8.3.1/thumb/v7e-m+fp/hard\libgcc.a(_arm_unorddf2.o)
 .debug_str     0x00002f6a       0xf3 c:/program files/microchip/xc32/v3.01/bin/bin/../../lib/gcc/pic32c/8.3.1/thumb/v7e-m+fp/hard\libgcc.a(_arm_fixdfsi.o)

.debug_frame    0x00000000     0x3c64
 .debug_frame   0x00000000       0x20 build/sam_e54_xpro_winc1500/production/_ext/1159541321/bsp.o
 .debug_frame   0x00000020      0x254 build/sam_e54_xpro_winc1500/production/_ext/138683810/drv_spi.o
 .debug_frame   0x00000274       0x40 build/sam_e54_xpro_winc1500/production/_ext/1232460686/wdrv_winc_eint.o
 .debug_frame   0x000002b4       0x50 build/sam_e54_xpro_winc1500/production/_ext/1232460686/wdrv_winc_gpio.o
 .debug_frame   0x00000304       0xc0 build/sam_e54_xpro_winc1500/production/_ext/930086057/wdrv_winc_spi.o
 .debug_frame   0x000003c4       0x40 build/sam_e54_xpro_winc1500/production/_ext/1121136421/nm_common.o
 .debug_frame   0x00000404      0x150 build/sam_e54_xpro_winc1500/production/_ext/1089847528/m2m_hif.o
 .debug_frame   0x00000554      0x944 build/sam_e54_xpro_winc1500/production/_ext/1089847528/m2m_wifi.o
 .debug_frame   0x00000e98      0x2e0 build/sam_e54_xpro_winc1500/production/_ext/1089847528/nmasic.o
 .debug_frame   0x00001178       0xf0 build/sam_e54_xpro_winc1500/production/_ext/1089847528/nmbus.o
 .debug_frame   0x00001268      0x100 build/sam_e54_xpro_winc1500/production/_ext/1089847528/nmdrv.o
 .debug_frame   0x00001368      0x1e4 build/sam_e54_xpro_winc1500/production/_ext/1089847528/nmspi.o
 .debug_frame   0x0000154c      0x1cc build/sam_e54_xpro_winc1500/production/_ext/1089847528/m2m_ota.o
 .debug_frame   0x00001718      0x158 build/sam_e54_xpro_winc1500/production/_ext/1089847528/m2m_ssl.o
 .debug_frame   0x00001870      0x31c build/sam_e54_xpro_winc1500/production/_ext/663370141/socket.o
 .debug_frame   0x00001b8c       0x68 build/sam_e54_xpro_winc1500/production/_ext/663370141/inet_ntop.o
 .debug_frame   0x00001bf4       0x38 build/sam_e54_xpro_winc1500/production/_ext/663370141/inet_addr.o
 .debug_frame   0x00001c2c      0x15c build/sam_e54_xpro_winc1500/production/_ext/1114755757/spi_flash.o
 .debug_frame   0x00001d88       0x58 build/sam_e54_xpro_winc1500/production/_ext/1114755757/flexible_flash.o
 .debug_frame   0x00001de0       0x2c build/sam_e54_xpro_winc1500/production/_ext/550069128/wdrv_winc_osal.o
 .debug_frame   0x00001e0c      0x308 build/sam_e54_xpro_winc1500/production/_ext/810064134/wdrv_winc.o
 .debug_frame   0x00002114       0xdc build/sam_e54_xpro_winc1500/production/_ext/810064134/wdrv_winc_authctx.o
 .debug_frame   0x000021f0       0xc4 build/sam_e54_xpro_winc1500/production/_ext/810064134/wdrv_winc_bssctx.o
 .debug_frame   0x000022b4       0xf4 build/sam_e54_xpro_winc1500/production/_ext/810064134/wdrv_winc_host_file.o
 .debug_frame   0x000023a8      0x194 build/sam_e54_xpro_winc1500/production/_ext/810064134/wdrv_winc_socket.o
 .debug_frame   0x0000253c       0xb4 build/sam_e54_xpro_winc1500/production/_ext/810064134/wdrv_winc_sta.o
 .debug_frame   0x000025f0       0xd0 build/sam_e54_xpro_winc1500/production/_ext/810064134/wdrv_winc_systime.o
 .debug_frame   0x000026c0       0x20 build/sam_e54_xpro_winc1500/production/_ext/583946941/plib_clock.o
 .debug_frame   0x000026e0      0x1c4 build/sam_e54_xpro_winc1500/production/_ext/1643761302/plib_dmac.o
 .debug_frame   0x000028a4       0x78 build/sam_e54_xpro_winc1500/production/_ext/2025184588/plib_eic.o
 .debug_frame   0x0000291c       0x20 build/sam_e54_xpro_winc1500/production/_ext/581797455/plib_evsys.o
 .debug_frame   0x0000293c       0x60 build/sam_e54_xpro_winc1500/production/_ext/1644068109/plib_nvic.o
 .debug_frame   0x0000299c      0x19c build/sam_e54_xpro_winc1500/production/_ext/1370199163/plib_nvmctrl.o
 .debug_frame   0x00002b38       0xcc build/sam_e54_xpro_winc1500/production/_ext/1644121260/plib_port.o
 .debug_frame   0x00002c04       0xdc build/sam_e54_xpro_winc1500/production/_ext/1854354360/plib_sercom4_spi_master.o
 .debug_frame   0x00002ce0      0x1b8 build/sam_e54_xpro_winc1500/production/_ext/923560386/plib_sercom2_usart.o
 .debug_frame   0x00002e98       0xd8 build/sam_e54_xpro_winc1500/production/_ext/1320145242/plib_tc3.o
 .debug_frame   0x00002f70      0x1d0 build/sam_e54_xpro_winc1500/production/_ext/501133612/sys_console.o
 .debug_frame   0x00003140       0xf8 build/sam_e54_xpro_winc1500/production/_ext/501133612/sys_console_uart.o
 .debug_frame   0x00003238       0x70 build/sam_e54_xpro_winc1500/production/_ext/1623561264/sys_debug.o
 .debug_frame   0x000032a8       0x48 build/sam_e54_xpro_winc1500/production/_ext/895123808/sys_dma.o
 .debug_frame   0x000032f0       0x84 build/sam_e54_xpro_winc1500/production/_ext/203683476/sys_int.o
 .debug_frame   0x00003374      0x3f8 build/sam_e54_xpro_winc1500/production/_ext/323285254/sys_time.o
 .debug_frame   0x0000376c       0x28 build/sam_e54_xpro_winc1500/production/_ext/231993977/initialization.o
 .debug_frame   0x00003794       0x20 build/sam_e54_xpro_winc1500/production/_ext/231993977/interrupts.o
 .debug_frame   0x000037b4       0x70 build/sam_e54_xpro_winc1500/production/_ext/231993977/exceptions.o
 .debug_frame   0x00003824       0x38 build/sam_e54_xpro_winc1500/production/_ext/231993977/startup_xc32.o
 .debug_frame   0x0000385c       0x28 build/sam_e54_xpro_winc1500/production/_ext/231993977/tasks.o
 .debug_frame   0x00003884       0xa4 build/sam_e54_xpro_winc1500/production/_ext/1360937237/example.o
 .debug_frame   0x00003928       0x28 build/sam_e54_xpro_winc1500/production/_ext/1360937237/main.o
 .debug_frame   0x00003950       0x38 build/sam_e54_xpro_winc1500/production/_ext/1360937237/app.o
 .debug_frame   0x00003988       0x38 c:/program files/microchip/xc32/v3.01/bin/bin/../../lib/gcc/pic32c/8.3.1/../../../../pic32c/lib/thumb/v7e-m+fp/hard\libpic32c.a(data_init.o)
 .debug_frame   0x000039c0       0x2c c:/program files/microchip/xc32/v3.01/bin/bin/../../lib/gcc/pic32c/8.3.1/thumb/v7e-m+fp/hard\libgcc.a(_aeabi_uldivmod.o)
 .debug_frame   0x000039ec       0x34 c:/program files/microchip/xc32/v3.01/bin/bin/../../lib/gcc/pic32c/8.3.1/thumb/v7e-m+fp/hard\libgcc.a(_udivmoddi4.o)
 .debug_frame   0x00003a20       0x20 c:/program files/microchip/xc32/v3.01/bin/bin/../../lib/gcc/pic32c/8.3.1/../../../../pic32c/lib/thumb/v7e-m+fp/hard\libc_nano.a(lib_a-strcmp.o)
 .debug_frame   0x00003a40       0x20 c:/program files/microchip/xc32/v3.01/bin/bin/../../lib/gcc/pic32c/8.3.1/../../../../pic32c/lib/thumb/v7e-m+fp/hard\libpic32c.a(sbrk.o)
 .debug_frame   0x00003a60       0xac c:/program files/microchip/xc32/v3.01/bin/bin/../../lib/gcc/pic32c/8.3.1/thumb/v7e-m+fp/hard\libgcc.a(_arm_addsubdf3.o)
 .debug_frame   0x00003b0c       0x50 c:/program files/microchip/xc32/v3.01/bin/bin/../../lib/gcc/pic32c/8.3.1/thumb/v7e-m+fp/hard\libgcc.a(_arm_muldivdf3.o)
 .debug_frame   0x00003b5c       0xc4 c:/program files/microchip/xc32/v3.01/bin/bin/../../lib/gcc/pic32c/8.3.1/thumb/v7e-m+fp/hard\libgcc.a(_arm_cmpdf2.o)
 .debug_frame   0x00003c20       0x20 c:/program files/microchip/xc32/v3.01/bin/bin/../../lib/gcc/pic32c/8.3.1/thumb/v7e-m+fp/hard\libgcc.a(_arm_unorddf2.o)
 .debug_frame   0x00003c40       0x24 c:/program files/microchip/xc32/v3.01/bin/bin/../../lib/gcc/pic32c/8.3.1/thumb/v7e-m+fp/hard\libgcc.a(_arm_fixdfsi.o)

.debug_loc      0x00000000    0x2083e
 .debug_loc     0x00000000     0x2471 build/sam_e54_xpro_winc1500/production/_ext/138683810/drv_spi.o
 .debug_loc     0x00002471       0x40 build/sam_e54_xpro_winc1500/production/_ext/1232460686/wdrv_winc_eint.o
 .debug_loc     0x000024b1      0x7c8 build/sam_e54_xpro_winc1500/production/_ext/930086057/wdrv_winc_spi.o
 .debug_loc     0x00002c79       0xa8 build/sam_e54_xpro_winc1500/production/_ext/1121136421/nm_common.o
 .debug_loc     0x00002d21      0xdc8 build/sam_e54_xpro_winc1500/production/_ext/1089847528/m2m_hif.o
 .debug_loc     0x00003ae9     0x450b build/sam_e54_xpro_winc1500/production/_ext/1089847528/m2m_wifi.o
 .debug_loc     0x00007ff4      0xe86 build/sam_e54_xpro_winc1500/production/_ext/1089847528/nmasic.o
 .debug_loc     0x00008e7a      0x556 build/sam_e54_xpro_winc1500/production/_ext/1089847528/nmbus.o
 .debug_loc     0x000093d0      0x79b build/sam_e54_xpro_winc1500/production/_ext/1089847528/nmdrv.o
 .debug_loc     0x00009b6b     0x1618 build/sam_e54_xpro_winc1500/production/_ext/1089847528/nmspi.o
 .debug_loc     0x0000b183      0xe08 build/sam_e54_xpro_winc1500/production/_ext/1089847528/m2m_ota.o
 .debug_loc     0x0000bf8b      0xe0a build/sam_e54_xpro_winc1500/production/_ext/1089847528/m2m_ssl.o
 .debug_loc     0x0000cd95     0x27c5 build/sam_e54_xpro_winc1500/production/_ext/663370141/socket.o
 .debug_loc     0x0000f55a      0x3ef build/sam_e54_xpro_winc1500/production/_ext/663370141/inet_ntop.o
 .debug_loc     0x0000f949      0x2eb build/sam_e54_xpro_winc1500/production/_ext/663370141/inet_addr.o
 .debug_loc     0x0000fc34      0xfee build/sam_e54_xpro_winc1500/production/_ext/1114755757/spi_flash.o
 .debug_loc     0x00010c22      0x2b6 build/sam_e54_xpro_winc1500/production/_ext/1114755757/flexible_flash.o
 .debug_loc     0x00010ed8       0x5d build/sam_e54_xpro_winc1500/production/_ext/550069128/wdrv_winc_osal.o
 .debug_loc     0x00010f35     0x2ad9 build/sam_e54_xpro_winc1500/production/_ext/810064134/wdrv_winc.o
 .debug_loc     0x00013a0e      0xb40 build/sam_e54_xpro_winc1500/production/_ext/810064134/wdrv_winc_authctx.o
 .debug_loc     0x0001454e      0x49a build/sam_e54_xpro_winc1500/production/_ext/810064134/wdrv_winc_bssctx.o
 .debug_loc     0x000149e8     0x1b12 build/sam_e54_xpro_winc1500/production/_ext/810064134/wdrv_winc_host_file.o
 .debug_loc     0x000164fa     0x147c build/sam_e54_xpro_winc1500/production/_ext/810064134/wdrv_winc_socket.o
 .debug_loc     0x00017976      0xac3 build/sam_e54_xpro_winc1500/production/_ext/810064134/wdrv_winc_sta.o
 .debug_loc     0x00018439      0x6b7 build/sam_e54_xpro_winc1500/production/_ext/810064134/wdrv_winc_systime.o
 .debug_loc     0x00018af0      0x846 build/sam_e54_xpro_winc1500/production/_ext/1643761302/plib_dmac.o
 .debug_loc     0x00019336       0xa2 build/sam_e54_xpro_winc1500/production/_ext/2025184588/plib_eic.o
 .debug_loc     0x000193d8      0x453 build/sam_e54_xpro_winc1500/production/_ext/1644068109/plib_nvic.o
 .debug_loc     0x0001982b      0x5a2 build/sam_e54_xpro_winc1500/production/_ext/1370199163/plib_nvmctrl.o
 .debug_loc     0x00019dcd      0x1bc build/sam_e54_xpro_winc1500/production/_ext/1644121260/plib_port.o
 .debug_loc     0x00019f89      0x640 build/sam_e54_xpro_winc1500/production/_ext/1854354360/plib_sercom4_spi_master.o
 .debug_loc     0x0001a5c9      0xb3a build/sam_e54_xpro_winc1500/production/_ext/923560386/plib_sercom2_usart.o
 .debug_loc     0x0001b103       0x5f build/sam_e54_xpro_winc1500/production/_ext/1320145242/plib_tc3.o
 .debug_loc     0x0001b162      0xd24 build/sam_e54_xpro_winc1500/production/_ext/501133612/sys_console.o
 .debug_loc     0x0001be86      0x9f9 build/sam_e54_xpro_winc1500/production/_ext/501133612/sys_console_uart.o
 .debug_loc     0x0001c87f       0xa1 build/sam_e54_xpro_winc1500/production/_ext/1623561264/sys_debug.o
 .debug_loc     0x0001c920      0x180 build/sam_e54_xpro_winc1500/production/_ext/895123808/sys_dma.o
 .debug_loc     0x0001caa0      0x182 build/sam_e54_xpro_winc1500/production/_ext/203683476/sys_int.o
 .debug_loc     0x0001cc22     0x252b build/sam_e54_xpro_winc1500/production/_ext/323285254/sys_time.o
 .debug_loc     0x0001f14d       0x45 build/sam_e54_xpro_winc1500/production/_ext/231993977/initialization.o
 .debug_loc     0x0001f192       0x60 build/sam_e54_xpro_winc1500/production/_ext/231993977/startup_xc32.o
 .debug_loc     0x0001f1f2       0x20 build/sam_e54_xpro_winc1500/production/_ext/231993977/tasks.o
 .debug_loc     0x0001f212      0x597 build/sam_e54_xpro_winc1500/production/_ext/1360937237/example.o
 .debug_loc     0x0001f7a9       0x20 build/sam_e54_xpro_winc1500/production/_ext/1360937237/main.o
 .debug_loc     0x0001f7c9       0x20 build/sam_e54_xpro_winc1500/production/_ext/1360937237/app.o
 .debug_loc     0x0001f7e9       0x14 c:/program files/microchip/xc32/v3.01/bin/bin/../../lib/gcc/pic32c/8.3.1/../../../../pic32c/lib/thumb/v7e-m+fp/hard\libpic32c.a(data_init.o)
 .debug_loc     0x0001f7fd     0x1041 c:/program files/microchip/xc32/v3.01/bin/bin/../../lib/gcc/pic32c/8.3.1/thumb/v7e-m+fp/hard\libgcc.a(_udivmoddi4.o)

.stack          0x20003fa0      0x100
 .stack         0x20003fa0      0x100 stack

.bss.SERCOM2_USART_WriteBuffer%1
                0x20000004      0x800
 .bss.SERCOM2_USART_WriteBuffer
                0x20000004      0x800 build/sam_e54_xpro_winc1500/production/_ext/923560386/plib_sercom2_usart.o

.bss.recvBuffer%2
                0x20000804      0x5b4
 .bss.recvBuffer
                0x20000804      0x5b4 build/sam_e54_xpro_winc1500/production/_ext/1360937237/example.o

.data.__global_locale%3
                0x20000db8      0x16c
 .data.__global_locale
                0x20000db8      0x16c c:/program files/microchip/xc32/v3.01/bin/bin/../../lib/gcc/pic32c/8.3.1/../../../../pic32c/lib/thumb/v7e-m+fp/hard\libc_nano.a(lib_a-locale.o)
                0x20000db8                __global_locale

.bss.wincCtrlDescriptor%4
                0x20000f24       0xfc
 .bss.wincCtrlDescriptor
                0x20000f24       0xfc build/sam_e54_xpro_winc1500/production/_ext/810064134/wdrv_winc.o

.bss.consolePrintBuffer%5
                0x20001020       0xc8
 .bss.consolePrintBuffer
                0x20001020       0xc8 build/sam_e54_xpro_winc1500/production/_ext/501133612/sys_console.o

.bss.eicCallbackObject%6
                0x200010e8       0xc0
 .bss.eicCallbackObject
                0x200010e8       0xc0 build/sam_e54_xpro_winc1500/production/_ext/2025184588/plib_eic.o

.bss.gastrSockets%7
                0x200011a8       0xb0
 .bss.gastrSockets
                0x200011a8       0xb0 build/sam_e54_xpro_winc1500/production/_ext/663370141/socket.o
                0x200011a8                gastrSockets

.bss.timers%8   0x20001258       0xa0
 .bss.timers    0x20001258       0xa0 build/sam_e54_xpro_winc1500/production/_ext/323285254/sys_time.o

.bss.drvSPI0TransferObjPool%9
                0x200012f8       0x90
 .bss.drvSPI0TransferObjPool
                0x200012f8       0x90 build/sam_e54_xpro_winc1500/production/_ext/231993977/initialization.o

.bss.SERCOM2_USART_ReadBuffer%10
                0x20001388       0x80
 .bss.SERCOM2_USART_ReadBuffer
                0x20001388       0x80 build/sam_e54_xpro_winc1500/production/_ext/923560386/plib_sercom2_usart.o

.bss.gDrvSPIObj%11
                0x20001408       0x6c
 .bss.gDrvSPIObj
                0x20001408       0x6c build/sam_e54_xpro_winc1500/production/_ext/138683810/drv_spi.o

.data.impure_data%12
                0x20001474       0x60
 .data.impure_data
                0x20001474       0x60 c:/program files/microchip/xc32/v3.01/bin/bin/../../lib/gcc/pic32c/8.3.1/../../../../pic32c/lib/thumb/v7e-m+fp/hard\libc_nano.a(lib_a-impure.o)

.bss._write_back_section%13
                0x200014d8       0x40
 .bss._write_back_section
                0x200014d8       0x40 build/sam_e54_xpro_winc1500/production/_ext/1643761302/plib_dmac.o

.bss.descriptor_section%14
                0x20001518       0x40
 .bss.descriptor_section
                0x20001518       0x40 build/sam_e54_xpro_winc1500/production/_ext/1643761302/plib_dmac.o

.bss.dmacChannelObj%15
                0x20001558       0x40
 .bss.dmacChannelObj
                0x20001558       0x40 build/sam_e54_xpro_winc1500/production/_ext/1643761302/plib_dmac.o
                0x20001558                dmacChannelObj

.bss.sercom2USARTObj%16
                0x20001598       0x40
 .bss.sercom2USARTObj
                0x20001598       0x40 build/sam_e54_xpro_winc1500/production/_ext/923560386/plib_sercom2_usart.o

.data.tzinfo%17
                0x200015d8       0x40
 .data.tzinfo   0x200015d8       0x40 c:/program files/microchip/xc32/v3.01/bin/bin/../../lib/gcc/pic32c/8.3.1/../../../../pic32c/lib/thumb/v7e-m+fp/hard\libc_nano.a(lib_a-gettzinfo.o)

.bss.gSystemCounterObj%18
                0x20001618       0x38
 .bss.gSystemCounterObj
                0x20001618       0x38 build/sam_e54_xpro_winc1500/production/_ext/323285254/sys_time.o

.bss.sercom4SPIObj%19
                0x20001650       0x2c
 .bss.sercom4SPIObj
                0x20001650       0x2c build/sam_e54_xpro_winc1500/production/_ext/1854354360/plib_sercom4_spi_master.o

.bss.gstrHifCxt%20
                0x2000167c       0x28
 .bss.gstrHifCxt
                0x2000167c       0x28 build/sam_e54_xpro_winc1500/production/_ext/1089847528/m2m_hif.o
                0x2000167c                gstrHifCxt

.bss.drvSPI0ClientObjPool%21
                0x200016a4       0x28
 .bss.drvSPI0ClientObjPool
                0x200016a4       0x28 build/sam_e54_xpro_winc1500/production/_ext/231993977/initialization.o

.bss.__sf_fake_stderr%22
                0x200016cc       0x20
 .bss.__sf_fake_stderr
                0x200016cc       0x20 c:/program files/microchip/xc32/v3.01/bin/bin/../../lib/gcc/pic32c/8.3.1/../../../../pic32c/lib/thumb/v7e-m+fp/hard\libc_nano.a(lib_a-findfp.o)
                0x200016cc                __sf_fake_stderr

.bss.__sf_fake_stdin%23
                0x200016ec       0x20
 .bss.__sf_fake_stdin
                0x200016ec       0x20 c:/program files/microchip/xc32/v3.01/bin/bin/../../lib/gcc/pic32c/8.3.1/../../../../pic32c/lib/thumb/v7e-m+fp/hard\libc_nano.a(lib_a-findfp.o)
                0x200016ec                __sf_fake_stdin

.bss.__sf_fake_stdout%24
                0x2000170c       0x20
 .bss.__sf_fake_stdout
                0x2000170c       0x20 c:/program files/microchip/xc32/v3.01/bin/bin/../../lib/gcc/pic32c/8.3.1/../../../../pic32c/lib/thumb/v7e-m+fp/hard\libc_nano.a(lib_a-findfp.o)
                0x2000170c                __sf_fake_stdout

.bss%25         0x2000172c       0x1c
 .bss           0x2000172c       0x1c c:/program files/microchip/xc32/v3.01/bin/bin/../../lib/gcc/pic32c/8.3.1/thumb/v7e-m+fp/hard/crtbegin.o

.bss.gau81xRootSha1%26
                0x20001748       0x14
 .bss.gau81xRootSha1
                0x20001748       0x14 build/sam_e54_xpro_winc1500/production/_ext/1089847528/m2m_wifi.o

.bss.sysObj%27  0x2000175c       0x14
 .bss.sysObj    0x2000175c       0x14 build/sam_e54_xpro_winc1500/production/_ext/231993977/initialization.o
                0x2000175c                sysObj

.bss.txDummyData%28
                0x20001770       0x10
 .bss.txDummyData
                0x20001770       0x10 build/sam_e54_xpro_winc1500/production/_ext/138683810/drv_spi.o

.bss.wincDescriptor%29
                0x20001780       0x10
 .bss.wincDescriptor
                0x20001780       0x10 build/sam_e54_xpro_winc1500/production/_ext/810064134/wdrv_winc.o

.bss.consoleDeviceInstance%30
                0x20001790        0xc
 .bss.consoleDeviceInstance
                0x20001790        0xc build/sam_e54_xpro_winc1500/production/_ext/501133612/sys_console.o

.bss.__tzname_dst%31
                0x2000179c        0xb
 .bss.__tzname_dst
                0x2000179c        0xb c:/program files/microchip/xc32/v3.01/bin/bin/../../lib/gcc/pic32c/8.3.1/../../../../pic32c/lib/thumb/v7e-m+fp/hard\libc_nano.a(lib_a-tzset_r.o)

.bss.__tzname_std%32
                0x200017a7        0xb
 .bss.__tzname_std
                0x200017a7        0xb c:/program files/microchip/xc32/v3.01/bin/bin/../../lib/gcc/pic32c/8.3.1/../../../../pic32c/lib/thumb/v7e-m+fp/hard\libc_nano.a(lib_a-tzset_r.o)

.bss.FileBlock%33
                0x200017b4        0x8
 .bss.FileBlock
                0x200017b4        0x8 build/sam_e54_xpro_winc1500/production/_ext/1089847528/m2m_ota.o

.bss.TC3_CallbackObject%34
                0x200017bc        0x8
 .bss.TC3_CallbackObject
                0x200017bc        0x8 build/sam_e54_xpro_winc1500/production/_ext/1320145242/plib_tc3.o

.bss.gConsoleUartData%35
                0x200017c4        0x8
 .bss.gConsoleUartData
                0x200017c4        0x8 build/sam_e54_xpro_winc1500/production/_ext/501133612/sys_console_uart.o

.bss.appData%36
                0x200017cc        0x8
 .bss.appData   0x200017cc        0x8 build/sam_e54_xpro_winc1500/production/_ext/1360937237/app.o
                0x200017cc                appData

.data._tzname%37
                0x200017d4        0x8
 .data._tzname  0x200017d4        0x8 c:/program files/microchip/xc32/v3.01/bin/bin/../../lib/gcc/pic32c/8.3.1/../../../../pic32c/lib/thumb/v7e-m+fp/hard\libc_nano.a(lib_a-tzvars.o)
                0x200017d4                _tzname

.bss.transferRxHandle%38
                0x200014d4        0x4
 .bss.transferRxHandle
                0x200014d4        0x4 build/sam_e54_xpro_winc1500/production/_ext/930086057/wdrv_winc_spi.o

.bss.transferTxHandle%39
                0x200017dc        0x4
 .bss.transferTxHandle
                0x200017dc        0x4 build/sam_e54_xpro_winc1500/production/_ext/930086057/wdrv_winc_spi.o

.data.spiHandle%40
                0x200017e0        0x4
 .data.spiHandle
                0x200017e0        0x4 build/sam_e54_xpro_winc1500/production/_ext/930086057/wdrv_winc_spi.o

.bss.gau8ethRcvBuf%41
                0x200017e4        0x4
 .bss.gau8ethRcvBuf
                0x200017e4        0x4 build/sam_e54_xpro_winc1500/production/_ext/1089847528/m2m_wifi.o

.bss.gpfAppEthCb%42
                0x200017e8        0x4
 .bss.gpfAppEthCb
                0x200017e8        0x4 build/sam_e54_xpro_winc1500/production/_ext/1089847528/m2m_wifi.o

.bss.gpfAppWifiCb%43
                0x200017ec        0x4
 .bss.gpfAppWifiCb
                0x200017ec        0x4 build/sam_e54_xpro_winc1500/production/_ext/1089847528/m2m_wifi.o

.data.gu321xTlsHsFlags%44
                0x200017f0        0x4
 .data.gu321xTlsHsFlags
                0x200017f0        0x4 build/sam_e54_xpro_winc1500/production/_ext/1089847528/m2m_wifi.o

.bss.chipid.12138%45
                0x200017f4        0x4
 .bss.chipid.12138
                0x200017f4        0x4 build/sam_e54_xpro_winc1500/production/_ext/1089847528/nmasic.o

.bss.gpfHFDEraseCb%46
                0x200017f8        0x4
 .bss.gpfHFDEraseCb
                0x200017f8        0x4 build/sam_e54_xpro_winc1500/production/_ext/1089847528/m2m_ota.o

.bss.gpfHFDGetCb%47
                0x200017fc        0x4
 .bss.gpfHFDGetCb
                0x200017fc        0x4 build/sam_e54_xpro_winc1500/production/_ext/1089847528/m2m_ota.o

.bss.gpfHFDReadCb%48
                0x20001800        0x4
 .bss.gpfHFDReadCb
                0x20001800        0x4 build/sam_e54_xpro_winc1500/production/_ext/1089847528/m2m_ota.o

.bss.gpfOtaNotifCb%49
                0x20001804        0x4
 .bss.gpfOtaNotifCb
                0x20001804        0x4 build/sam_e54_xpro_winc1500/production/_ext/1089847528/m2m_ota.o

.bss.gpfOtaUpdateCb%50
                0x20001808        0x4
 .bss.gpfOtaUpdateCb
                0x20001808        0x4 build/sam_e54_xpro_winc1500/production/_ext/1089847528/m2m_ota.o

.bss.u32FlashHFDSize.12656%51
                0x2000180c        0x4
 .bss.u32FlashHFDSize.12656
                0x2000180c        0x4 build/sam_e54_xpro_winc1500/production/_ext/1089847528/m2m_ota.o

.bss.u32FlashHFDStart.12655%52
                0x20001810        0x4
 .bss.u32FlashHFDStart.12655
                0x20001810        0x4 build/sam_e54_xpro_winc1500/production/_ext/1089847528/m2m_ota.o

.bss.gpfAppSSLCb%53
                0x20001814        0x4
 .bss.gpfAppSSLCb
                0x20001814        0x4 build/sam_e54_xpro_winc1500/production/_ext/1089847528/m2m_ssl.o

.bss.gu32HIFAddr%54
                0x20001818        0x4
 .bss.gu32HIFAddr
                0x20001818        0x4 build/sam_e54_xpro_winc1500/production/_ext/1089847528/m2m_ssl.o

.bss.gfpPingCb%55
                0x2000181c        0x4
 .bss.gfpPingCb
                0x2000181c        0x4 build/sam_e54_xpro_winc1500/production/_ext/663370141/socket.o

.bss.gpfAppResolveCb%56
                0x20001820        0x4
 .bss.gpfAppResolveCb
                0x20001820        0x4 build/sam_e54_xpro_winc1500/production/_ext/663370141/socket.o
                0x20001820                gpfAppResolveCb

.bss.gpfAppSocketCb%57
                0x20001824        0x4
 .bss.gpfAppSocketCb
                0x20001824        0x4 build/sam_e54_xpro_winc1500/production/_ext/663370141/socket.o
                0x20001824                gpfAppSocketCb

.bss.gu32PingId%58
                0x20001828        0x4
 .bss.gu32PingId
                0x20001828        0x4 build/sam_e54_xpro_winc1500/production/_ext/663370141/socket.o

.bss.sysDebugInstance%59
                0x2000182c        0x4
 .bss.sysDebugInstance
                0x2000182c        0x4 build/sam_e54_xpro_winc1500/production/_ext/1623561264/sys_debug.o

.bss.wdrvHandle%60
                0x20001830        0x4
 .bss.wdrvHandle
                0x20001830        0x4 build/sam_e54_xpro_winc1500/production/_ext/1360937237/app.o

.bss%61         0x20001834        0x4
 .bss           0x20001834        0x4 c:/program files/microchip/xc32/v3.01/bin/bin/../../lib/gcc/pic32c/8.3.1/../../../../pic32c/lib/thumb/v7e-m+fp/hard\libpic32c.a(data_init.o)

.data._impure_ptr%62
                0x20001838        0x4
 .data._impure_ptr
                0x20001838        0x4 c:/program files/microchip/xc32/v3.01/bin/bin/../../lib/gcc/pic32c/8.3.1/../../../../pic32c/lib/thumb/v7e-m+fp/hard\libc_nano.a(lib_a-impure.o)
                0x20001838                _impure_ptr

.bss.__malloc_free_list%63
                0x2000183c        0x4
 .bss.__malloc_free_list
                0x2000183c        0x4 c:/program files/microchip/xc32/v3.01/bin/bin/../../lib/gcc/pic32c/8.3.1/../../../../pic32c/lib/thumb/v7e-m+fp/hard\libc_nano.a(lib_a-nano-mallocr.o)
                0x2000183c                __malloc_free_list

.bss.__malloc_sbrk_start%64
                0x20001840        0x4
 .bss.__malloc_sbrk_start
                0x20001840        0x4 c:/program files/microchip/xc32/v3.01/bin/bin/../../lib/gcc/pic32c/8.3.1/../../../../pic32c/lib/thumb/v7e-m+fp/hard\libc_nano.a(lib_a-nano-mallocr.o)
                0x20001840                __malloc_sbrk_start

.bss.prev_tzenv%65
                0x20001844        0x4
 .bss.prev_tzenv
                0x20001844        0x4 c:/program files/microchip/xc32/v3.01/bin/bin/../../lib/gcc/pic32c/8.3.1/../../../../pic32c/lib/thumb/v7e-m+fp/hard\libc_nano.a(lib_a-tzset_r.o)

.bss._daylight%66
                0x20001848        0x4
 .bss._daylight
                0x20001848        0x4 c:/program files/microchip/xc32/v3.01/bin/bin/../../lib/gcc/pic32c/8.3.1/../../../../pic32c/lib/thumb/v7e-m+fp/hard\libc_nano.a(lib_a-tzvars.o)
                0x20001848                _daylight

.bss._timezone%67
                0x2000184c        0x4
 .bss._timezone
                0x2000184c        0x4 c:/program files/microchip/xc32/v3.01/bin/bin/../../lib/gcc/pic32c/8.3.1/../../../../pic32c/lib/thumb/v7e-m+fp/hard\libc_nano.a(lib_a-tzvars.o)
                0x2000184c                _timezone

.bss.initial_env%68
                0x20001850        0x4
 .bss.initial_env
                0x20001850        0x4 c:/program files/microchip/xc32/v3.01/bin/bin/../../lib/gcc/pic32c/8.3.1/../../../../pic32c/lib/thumb/v7e-m+fp/hard\libc_nano.a(lib_a-environ.o)

.data.environ%69
                0x20001854        0x4
 .data.environ  0x20001854        0x4 c:/program files/microchip/xc32/v3.01/bin/bin/../../lib/gcc/pic32c/8.3.1/../../../../pic32c/lib/thumb/v7e-m+fp/hard\libc_nano.a(lib_a-environ.o)
                0x20001854                environ

.bss%70         0x20001858        0x4
 .bss           0x20001858        0x4 c:/program files/microchip/xc32/v3.01/bin/bin/../../lib/gcc/pic32c/8.3.1/../../../../pic32c/lib/thumb/v7e-m+fp/hard\libpic32c.a(sbrk.o)

.data.egstrNmBusCapabilities%71
                0x2000185c        0x2
 .data.egstrNmBusCapabilities
                0x2000185c        0x2 build/sam_e54_xpro_winc1500/production/_ext/1089847528/nmbus.o
                0x2000185c                egstrNmBusCapabilities

.bss.gu16ethRcvBufSize%72
                0x200017b2        0x2
 .bss.gu16ethRcvBufSize
                0x200017b2        0x2 build/sam_e54_xpro_winc1500/production/_ext/1089847528/m2m_wifi.o

.bss.gu16SessionID%73
                0x2000185e        0x2
 .bss.gu16SessionID
                0x2000185e        0x2 build/sam_e54_xpro_winc1500/production/_ext/663370141/socket.o
                0x2000185e                gu16SessionID

.data.gSysTimeTokenCount%74
                0x20001860        0x2
 .data.gSysTimeTokenCount
                0x20001860        0x2 build/sam_e54_xpro_winc1500/production/_ext/323285254/sys_time.o

.bss.dummy.12474%75
                0x20001862        0x1
 .bss.dummy.12474
                0x20001862        0x1 build/sam_e54_xpro_winc1500/production/_ext/930086057/wdrv_winc_spi.o

.bss.rxSyncSem%76
                0x20001863        0x1
 .bss.rxSyncSem
                0x20001863        0x1 build/sam_e54_xpro_winc1500/production/_ext/930086057/wdrv_winc_spi.o

.bss.txSyncSem%77
                0x20001864        0x1
 .bss.txSyncSem
                0x20001864        0x1 build/sam_e54_xpro_winc1500/production/_ext/930086057/wdrv_winc_spi.o

.bss.hifSemaphore%78
                0x20001865        0x1
 .bss.hifSemaphore
                0x20001865        0x1 build/sam_e54_xpro_winc1500/production/_ext/1089847528/m2m_hif.o

.bss.gu8ChNum%79
                0x20001866        0x1
 .bss.gu8ChNum  0x20001866        0x1 build/sam_e54_xpro_winc1500/production/_ext/1089847528/m2m_wifi.o

.bss.gu8WifiState%80
                0x20001867        0x1
 .bss.gu8WifiState
                0x20001867        0x1 build/sam_e54_xpro_winc1500/production/_ext/1089847528/m2m_wifi.o

.bss.gu8scanInProgress%81
                0x20001868        0x1
 .bss.gu8scanInProgress
                0x20001868        0x1 build/sam_e54_xpro_winc1500/production/_ext/1089847528/m2m_wifi.o

.bss.gu8Crc_off%82
                0x20001869        0x1
 .bss.gu8Crc_off
                0x20001869        0x1 build/sam_e54_xpro_winc1500/production/_ext/1089847528/nmspi.o

.bss.s_spiLock%83
                0x2000186a        0x1
 .bss.s_spiLock
                0x2000186a        0x1 build/sam_e54_xpro_winc1500/production/_ext/1089847528/nmspi.o

.data.gu8CurrFileHandlerID%84
                0x2000186b        0x1
 .data.gu8CurrFileHandlerID
                0x2000186b        0x1 build/sam_e54_xpro_winc1500/production/_ext/1089847528/m2m_ota.o

.data.genuStatus%85
                0x2000186c        0x1
 .data.genuStatus
                0x2000186c        0x1 build/sam_e54_xpro_winc1500/production/_ext/1089847528/m2m_ssl.o

.bss.gbSocketInit%86
                0x2000186d        0x1
 .bss.gbSocketInit
                0x2000186d        0x1 build/sam_e54_xpro_winc1500/production/_ext/663370141/socket.o
                0x2000186d                gbSocketInit

.bss.u8NextTcpSock.12451%87
                0x2000186e        0x1
 .bss.u8NextTcpSock.12451
                0x2000186e        0x1 build/sam_e54_xpro_winc1500/production/_ext/663370141/socket.o

.bss.u8NextUdpSock.12452%88
                0x2000186f        0x1
 .bss.u8NextUdpSock.12452
                0x2000186f        0x1 build/sam_e54_xpro_winc1500/production/_ext/663370141/socket.o

.bss.isLastByteTransferInProgress.8238%89
                0x20001870        0x1
 .bss.isLastByteTransferInProgress.8238
                0x20001870        0x1 build/sam_e54_xpro_winc1500/production/_ext/1854354360/plib_sercom4_spi_master.o

.bss.consolePrintBufferMutex%90
                0x20001871        0x1
 .bss.consolePrintBufferMutex
                0x20001871        0x1 build/sam_e54_xpro_winc1500/production/_ext/501133612/sys_console.o

.bss.isConsoleMutexCreated%91
                0x20001872        0x1
 .bss.isConsoleMutexCreated
                0x20001872        0x1 build/sam_e54_xpro_winc1500/production/_ext/501133612/sys_console.o

.bss.gblErrLvl%92
                0x20001873        0x1
 .bss.gblErrLvl
                0x20001873        0x1 build/sam_e54_xpro_winc1500/production/_ext/1623561264/sys_debug.o
                0x20001873                gblErrLvl

.bss.clientSocket%93
                0x20001874        0x1
 .bss.clientSocket
                0x20001874        0x1 build/sam_e54_xpro_winc1500/production/_ext/1360937237/example.o

.bss.state%94   0x20001875        0x1
 .bss.state     0x20001875        0x1 build/sam_e54_xpro_winc1500/production/_ext/1360937237/example.o

.eh_frame%z1    0x00000000        0x0
 .eh_frame      0x00000000        0x0 c:/program files/microchip/xc32/v3.01/bin/bin/../../lib/gcc/pic32c/8.3.1/thumb/v7e-m+fp/hard/crtbegin.o

.text._dtoa_r%95
                0x00000290      0xb6c
 .text._dtoa_r  0x00000290      0xb6c c:/program files/microchip/xc32/v3.01/bin/bin/../../lib/gcc/pic32c/8.3.1/../../../../pic32c/lib/thumb/v7e-m+fp/hard\libc_nano.a(lib_a-dtoa.o)
                0x00000290                _dtoa_r

.dinit%96       0x00000dfc      0x6b0
 .dinit         0x00000dfc      0x6b0 data_init

.rodata%97      0x000014ac      0x664
 .rodata        0x000014ac      0x664 build/sam_e54_xpro_winc1500/production/_ext/1089847528/nmspi.o

.text._printf_float%98
                0x00001b10      0x52c
 .text._printf_float
                0x00001b10      0x52c c:/program files/microchip/xc32/v3.01/bin/bin/../../lib/gcc/pic32c/8.3.1/../../../../pic32c/lib/thumb/v7e-m+fp/hard\libc_nano.a(lib_a-nano-vfprintf_float.o)
                0x00001b10                _printf_float

.text.m2m_ip_cb%99
                0x0000203c      0x4a8
 .text.m2m_ip_cb
                0x0000203c      0x4a8 build/sam_e54_xpro_winc1500/production/_ext/663370141/socket.o

.text%100       0x000024e4      0x424
 .text          0x000024e4      0x424 c:/program files/microchip/xc32/v3.01/bin/bin/../../lib/gcc/pic32c/8.3.1/thumb/v7e-m+fp/hard\libgcc.a(_arm_muldivdf3.o)
                0x000024e4                __aeabi_dmul
                0x000024e4                __muldf3
                0x00002738                __divdf3
                0x00002738                __aeabi_ddiv

.text._WDRV_WINC_WifiCallback%101
                0x00002908      0x3d8
 .text._WDRV_WINC_WifiCallback
                0x00002908      0x3d8 build/sam_e54_xpro_winc1500/production/_ext/810064134/wdrv_winc.o

.rodata%102     0x00002ce0      0x37c
 .rodata        0x00002ce0      0x37c build/sam_e54_xpro_winc1500/production/_ext/1089847528/m2m_hif.o

.text.m2m_wifi_cb%103
                0x0000305c      0x37c
 .text.m2m_wifi_cb
                0x0000305c      0x37c build/sam_e54_xpro_winc1500/production/_ext/1089847528/m2m_wifi.o

.text%104       0x000033d8      0x378
 .text          0x000033d8      0x378 c:/program files/microchip/xc32/v3.01/bin/bin/../../lib/gcc/pic32c/8.3.1/thumb/v7e-m+fp/hard\libgcc.a(_arm_addsubdf3.o)
                0x000033d8                __aeabi_drsub
                0x000033e0                __aeabi_dsub
                0x000033e0                __subdf3
                0x000033e4                __aeabi_dadd
                0x000033e4                __adddf3
                0x0000365c                __floatunsidf
                0x0000365c                __aeabi_ui2d
                0x0000367c                __floatsidf
                0x0000367c                __aeabi_i2d
                0x000036a0                __aeabi_f2d
                0x000036a0                __extendsfdf2
                0x000036e4                __floatundidf
                0x000036e4                __aeabi_ul2d
                0x000036f4                __floatdidf
                0x000036f4                __aeabi_l2d

.rodata%105     0x00003750      0x374
 .rodata        0x00003750      0x374 build/sam_e54_xpro_winc1500/production/_ext/1089847528/m2m_wifi.o

.text.hif_handle_isr%106
                0x00003ac4      0x364
 .text.hif_handle_isr
                0x00003ac4      0x364 build/sam_e54_xpro_winc1500/production/_ext/1089847528/m2m_hif.o
                0x00003ac4                hif_handle_isr

.text._tzset_unlocked_r%107
                0x00003e28      0x2f8
 .text._tzset_unlocked_r
                0x00003e28      0x2f8 c:/program files/microchip/xc32/v3.01/bin/bin/../../lib/gcc/pic32c/8.3.1/../../../../pic32c/lib/thumb/v7e-m+fp/hard\libc_nano.a(lib_a-tzset_r.o)
                0x00003e28                _tzset_unlocked_r

.text.mktime%108
                0x00004120      0x2d4
 .text.mktime   0x00004120      0x2d4 c:/program files/microchip/xc32/v3.01/bin/bin/../../lib/gcc/pic32c/8.3.1/../../../../pic32c/lib/thumb/v7e-m+fp/hard\libc_nano.a(lib_a-mktime.o)
                0x00004120                mktime

.text%109       0x000043f4      0x2d0
 .text          0x000043f4      0x2d0 c:/program files/microchip/xc32/v3.01/bin/bin/../../lib/gcc/pic32c/8.3.1/thumb/v7e-m+fp/hard\libgcc.a(_udivmoddi4.o)
                0x000043f4                __udivmoddi4

.text.__ssvfscanf_r%110
                0x000046c4      0x298
 .text.__ssvfscanf_r
                0x000046c4      0x298 c:/program files/microchip/xc32/v3.01/bin/bin/../../lib/gcc/pic32c/8.3.1/../../../../pic32c/lib/thumb/v7e-m+fp/hard\libc_nano.a(lib_a-nano-svfscanf.o)
                0x000046c4                __ssvfiscanf_r
                0x000046c4                __ssvfscanf_r

.text.hif_send%111
                0x0000495c      0x274
 .text.hif_send
                0x0000495c      0x274 build/sam_e54_xpro_winc1500/production/_ext/1089847528/m2m_hif.o
                0x0000495c                hif_send

.text.WDRV_WINC_Tasks%112
                0x00004bd0      0x240
 .text.WDRV_WINC_Tasks
                0x00004bd0      0x240 build/sam_e54_xpro_winc1500/production/_ext/810064134/wdrv_winc.o
                0x00004bd0                WDRV_WINC_Tasks

.text.WDRV_WINC_BSSConnect%113
                0x00004e10      0x238
 .text.WDRV_WINC_BSSConnect
                0x00004e10      0x238 build/sam_e54_xpro_winc1500/production/_ext/810064134/wdrv_winc_sta.o
                0x00004e10                WDRV_WINC_BSSConnect

.text._printf_i%114
                0x00005048      0x228
 .text._printf_i
                0x00005048      0x228 c:/program files/microchip/xc32/v3.01/bin/bin/../../lib/gcc/pic32c/8.3.1/../../../../pic32c/lib/thumb/v7e-m+fp/hard\libc_nano.a(lib_a-nano-vfprintf_i.o)
                0x00005048                _printf_i

.text.nm_spi_write_block%115
                0x00005270      0x220
 .text.nm_spi_write_block
                0x00005270      0x220 build/sam_e54_xpro_winc1500/production/_ext/1089847528/nmspi.o
                0x00005270                nm_spi_write_block

.text.DRV_SPI_WriteReadTransferAdd%116
                0x00005490      0x1e8
 .text.DRV_SPI_WriteReadTransferAdd
                0x00005490      0x1e8 build/sam_e54_xpro_winc1500/production/_ext/138683810/drv_spi.o
                0x00005490                DRV_SPI_WriteReadTransferAdd

.text._scanf_i%117
                0x00005678      0x1e8
 .text._scanf_i
                0x00005678      0x1e8 c:/program files/microchip/xc32/v3.01/bin/bin/../../lib/gcc/pic32c/8.3.1/../../../../pic32c/lib/thumb/v7e-m+fp/hard\libc_nano.a(lib_a-nano-vfscanf_i.o)
                0x00005678                _scanf_i

.rodata%118     0x00005860      0x1e4
 .rodata        0x00005860      0x1e4 build/sam_e54_xpro_winc1500/production/_ext/1360937237/example.o

.text._svfprintf_r%119
                0x00005a44      0x1cc
 .text._svfprintf_r
                0x00005a44      0x1cc c:/program files/microchip/xc32/v3.01/bin/bin/../../lib/gcc/pic32c/8.3.1/../../../../pic32c/lib/thumb/v7e-m+fp/hard\libc_nano.a(lib_a-nano-svfprintf.o)
                0x00005a44                _svfiprintf_r
                0x00005a44                _svfprintf_r

.text.m2m_wifi_connect_1x_tls%120
                0x00005c10      0x1b8
 .text.m2m_wifi_connect_1x_tls
                0x00005c10      0x1b8 build/sam_e54_xpro_winc1500/production/_ext/1089847528/m2m_wifi.o
                0x00005c10                m2m_wifi_connect_1x_tls

.text._WDRV_WINC_HostFileReadHIFCallback%121
                0x00005dc8      0x1b8
 .text._WDRV_WINC_HostFileReadHIFCallback
                0x00005dc8      0x1b8 build/sam_e54_xpro_winc1500/production/_ext/810064134/wdrv_winc.o

.text.validate_structure%122
                0x00005f80      0x1b4
 .text.validate_structure
                0x00005f80      0x1b4 c:/program files/microchip/xc32/v3.01/bin/bin/../../lib/gcc/pic32c/8.3.1/../../../../pic32c/lib/thumb/v7e-m+fp/hard\libc_nano.a(lib_a-mktime.o)

.text.SERCOM2_USART_InterruptHandler%123
                0x00006134      0x1b0
 .text.SERCOM2_USART_InterruptHandler
                0x00006134      0x1b0 build/sam_e54_xpro_winc1500/production/_ext/923560386/plib_sercom2_usart.o
                0x00006134                SERCOM2_USART_InterruptHandler

.text.socket%124
                0x000062e4      0x1ac
 .text.socket   0x000062e4      0x1ac build/sam_e54_xpro_winc1500/production/_ext/663370141/socket.o
                0x000062e4                socket

.text.m2m_ota_cb%125
                0x00006490      0x1a8
 .text.m2m_ota_cb
                0x00006490      0x1a8 build/sam_e54_xpro_winc1500/production/_ext/1089847528/m2m_ota.o

.text._DRV_SPI_StartDMATransfer%126
                0x00006638      0x1a4
 .text._DRV_SPI_StartDMATransfer
                0x00006638      0x1a4 build/sam_e54_xpro_winc1500/production/_ext/138683810/drv_spi.o

.text.SERCOM4_SPI_InterruptHandler%127
                0x000067dc      0x190
 .text.SERCOM4_SPI_InterruptHandler
                0x000067dc      0x190 build/sam_e54_xpro_winc1500/production/_ext/1854354360/plib_sercom4_spi_master.o
                0x000067dc                SERCOM4_SPI_InterruptHandler

.text.m2m_wifi_init_start%128
                0x0000696c      0x18c
 .text.m2m_wifi_init_start
                0x0000696c      0x18c build/sam_e54_xpro_winc1500/production/_ext/1089847528/m2m_wifi.o
                0x0000696c                m2m_wifi_init_start

.text.spi_cmd%129
                0x00006af8      0x15c
 .text.spi_cmd  0x00006af8      0x15c build/sam_e54_xpro_winc1500/production/_ext/1089847528/nmspi.o

.text._DRV_SPI_RX_DMA_CallbackHandler%130
                0x00006c54      0x150
 .text._DRV_SPI_RX_DMA_CallbackHandler
                0x00006c54      0x150 build/sam_e54_xpro_winc1500/production/_ext/138683810/drv_spi.o
                0x00006c54                _DRV_SPI_RX_DMA_CallbackHandler

.text.APP_ExampleSocketEventCallback%131
                0x00006da4      0x14c
 .text.APP_ExampleSocketEventCallback
                0x00006da4      0x14c build/sam_e54_xpro_winc1500/production/_ext/1360937237/example.o

.text.WDRV_WINC_Open%132
                0x00006ef0      0x144
 .text.WDRV_WINC_Open
                0x00006ef0      0x144 build/sam_e54_xpro_winc1500/production/_ext/810064134/wdrv_winc.o
                0x00006ef0                WDRV_WINC_Open

.text.WDRV_WINC_HostFileRead%133
                0x00007034      0x144
 .text.WDRV_WINC_HostFileRead
                0x00007034      0x144 build/sam_e54_xpro_winc1500/production/_ext/810064134/wdrv_winc_host_file.o
                0x00007034                WDRV_WINC_HostFileRead

.text.SERCOM4_SPI_WriteRead%134
                0x00007178      0x140
 .text.SERCOM4_SPI_WriteRead
                0x00007178      0x140 build/sam_e54_xpro_winc1500/production/_ext/1854354360/plib_sercom4_spi_master.o
                0x00007178                SERCOM4_SPI_WriteRead

.text.__tzcalc_limits%135
                0x000072b8      0x140
 .text.__tzcalc_limits
                0x000072b8      0x140 c:/program files/microchip/xc32/v3.01/bin/bin/../../lib/gcc/pic32c/8.3.1/../../../../pic32c/lib/thumb/v7e-m+fp/hard\libc_nano.a(lib_a-tzcalc_limits.o)
                0x000072b8                __tzcalc_limits

.text.DRV_SPI_Open%136
                0x000073f8      0x130
 .text.DRV_SPI_Open
                0x000073f8      0x130 build/sam_e54_xpro_winc1500/production/_ext/138683810/drv_spi.o
                0x000073f8                DRV_SPI_Open

.text.wait_for_bootrom%137
                0x00007528      0x130
 .text.wait_for_bootrom
                0x00007528      0x130 build/sam_e54_xpro_winc1500/production/_ext/1089847528/nmasic.o
                0x00007528                wait_for_bootrom

.text.__multiply%138
                0x00007658      0x130
 .text.__multiply
                0x00007658      0x130 c:/program files/microchip/xc32/v3.01/bin/bin/../../lib/gcc/pic32c/8.3.1/../../../../pic32c/lib/thumb/v7e-m+fp/hard\libc_nano.a(lib_a-mprec.o)
                0x00007658                __multiply

.text.quorem%139
                0x00007788      0x12e
 .text.quorem   0x00007788      0x12e c:/program files/microchip/xc32/v3.01/bin/bin/../../lib/gcc/pic32c/8.3.1/../../../../pic32c/lib/thumb/v7e-m+fp/hard\libc_nano.a(lib_a-dtoa.o)

.text.m2m_wifi_connect_1x_mschap2%140
                0x000078b8      0x128
 .text.m2m_wifi_connect_1x_mschap2
                0x000078b8      0x128 build/sam_e54_xpro_winc1500/production/_ext/1089847528/m2m_wifi.o
                0x000078b8                m2m_wifi_connect_1x_mschap2

.rodata%141     0x000079e0      0x248
 .rodata        0x000079e0      0x124 build/sam_e54_xpro_winc1500/production/_ext/138683810/drv_spi.o
 .rodata        0x00007b04      0x124 build/sam_e54_xpro_winc1500/production/_ext/1089847528/nmasic.o

.text.m2m_ssl_cb%143
                0x00007c28      0x124
 .text.m2m_ssl_cb
                0x00007c28      0x124 build/sam_e54_xpro_winc1500/production/_ext/1089847528/m2m_ssl.o

.text.CLOCK_Initialize%144
                0x00007d4c      0x118
 .text.CLOCK_Initialize
                0x00007d4c      0x118 build/sam_e54_xpro_winc1500/production/_ext/583946941/plib_clock.o
                0x00007d4c                CLOCK_Initialize

.text.nm_spi_init%145
                0x00007e64      0x114
 .text.nm_spi_init
                0x00007e64      0x114 build/sam_e54_xpro_winc1500/production/_ext/1089847528/nmspi.o
                0x00007e64                nm_spi_init

.text.DRV_SPI_Close%146
                0x00007f78      0x110
 .text.DRV_SPI_Close
                0x00007f78      0x110 build/sam_e54_xpro_winc1500/production/_ext/138683810/drv_spi.o
                0x00007f78                DRV_SPI_Close

.text.spi_data_read%147
                0x00008088      0x110
 .text.spi_data_read
                0x00008088      0x110 build/sam_e54_xpro_winc1500/production/_ext/1089847528/nmspi.o

.text.nm_spi_read_reg_with_ret%148
                0x00008198      0x110
 .text.nm_spi_read_reg_with_ret
                0x00008198      0x110 build/sam_e54_xpro_winc1500/production/_ext/1089847528/nmspi.o
                0x00008198                nm_spi_read_reg_with_ret

.rodata%149     0x000082a8      0x110
 .rodata        0x000082a8      0x110 build/sam_e54_xpro_winc1500/production/_ext/663370141/socket.o

.text%150       0x000083b8      0x110
 .text          0x000083b8      0x110 c:/program files/microchip/xc32/v3.01/bin/bin/../../lib/gcc/pic32c/8.3.1/thumb/v7e-m+fp/hard\libgcc.a(_arm_cmpdf2.o)
                0x000083b8                __gtdf2
                0x000083b8                __gedf2
                0x000083c0                __ltdf2
                0x000083c0                __ledf2
                0x000083c8                __nedf2
                0x000083c8                __eqdf2
                0x000083c8                __cmpdf2
                0x00008444                __aeabi_cdrcmple
                0x00008454                __aeabi_cdcmpeq
                0x00008454                __aeabi_cdcmple
                0x00008464                __aeabi_dcmpeq
                0x00008478                __aeabi_dcmplt
                0x0000848c                __aeabi_dcmple
                0x000084a0                __aeabi_dcmpge
                0x000084b4                __aeabi_dcmpgt

.text.m2m_wifi_connect_psk%151
                0x000084c8      0x108
 .text.m2m_wifi_connect_psk
                0x000084c8      0x108 build/sam_e54_xpro_winc1500/production/_ext/1089847528/m2m_wifi.o
                0x000084c8                m2m_wifi_connect_psk

.text.nm_spi_read_block%152
                0x000085d0      0x108
 .text.nm_spi_read_block
                0x000085d0      0x108 build/sam_e54_xpro_winc1500/production/_ext/1089847528/nmspi.o
                0x000085d0                nm_spi_read_block

.text.APP_ExampleTasks%153
                0x000086d8      0x104
 .text.APP_ExampleTasks
                0x000086d8      0x104 build/sam_e54_xpro_winc1500/production/_ext/1360937237/example.o
                0x000086d8                APP_ExampleTasks

.rodata._ctype_%154
                0x000087dc      0x101
 .rodata._ctype_
                0x000087dc      0x101 c:/program files/microchip/xc32/v3.01/bin/bin/../../lib/gcc/pic32c/8.3.1/../../../../pic32c/lib/thumb/v7e-m+fp/hard\libc_nano.a(lib_a-ctype_.o)
                0x000087dc                _ctype_

.rodata.crc7_syndrome_table%155
                0x000088e0      0x100
 .rodata.crc7_syndrome_table
                0x000088e0      0x100 build/sam_e54_xpro_winc1500/production/_ext/1089847528/nmspi.o

.text._WDRV_WINC_SSLCallback%156
                0x000089e0      0x100
 .text._WDRV_WINC_SSLCallback
                0x000089e0      0x100 build/sam_e54_xpro_winc1500/production/_ext/810064134/wdrv_winc.o

.text.DRV_SPI_Initialize%157
                0x00008ae0       0xf0
 .text.DRV_SPI_Initialize
                0x00008ae0       0xf0 build/sam_e54_xpro_winc1500/production/_ext/138683810/drv_spi.o
                0x00008ae0                DRV_SPI_Initialize

.text.DMAC_ChannelTransfer%158
                0x00008bd0       0xec
 .text.DMAC_ChannelTransfer
                0x00008bd0       0xec build/sam_e54_xpro_winc1500/production/_ext/1643761302/plib_dmac.o
                0x00008bd0                DMAC_ChannelTransfer

.text._strtol_l.isra.0%159
                0x00008cbc       0xec
 .text._strtol_l.isra.0
                0x00008cbc       0xec c:/program files/microchip/xc32/v3.01/bin/bin/../../lib/gcc/pic32c/8.3.1/../../../../pic32c/lib/thumb/v7e-m+fp/hard\libc_nano.a(lib_a-strtol.o)

.text._printf_common%160
                0x00008da8       0xea
 .text._printf_common
                0x00008da8       0xea c:/program files/microchip/xc32/v3.01/bin/bin/../../lib/gcc/pic32c/8.3.1/../../../../pic32c/lib/thumb/v7e-m+fp/hard\libc_nano.a(lib_a-nano-vfprintf_i.o)
                0x00008da8                _printf_common

.text.spi_cmd_rsp%161
                0x00008e94       0xe8
 .text.spi_cmd_rsp
                0x00008e94       0xe8 build/sam_e54_xpro_winc1500/production/_ext/1089847528/nmspi.o

.text.nm_spi_write_reg%162
                0x00008f7c       0xe8
 .text.nm_spi_write_reg
                0x00008f7c       0xe8 build/sam_e54_xpro_winc1500/production/_ext/1089847528/nmspi.o
                0x00008f7c                nm_spi_write_reg

.text._strtoul_l.isra.0%163
                0x00009064       0xe8
 .text._strtoul_l.isra.0
                0x00009064       0xe8 c:/program files/microchip/xc32/v3.01/bin/bin/../../lib/gcc/pic32c/8.3.1/../../../../pic32c/lib/thumb/v7e-m+fp/hard\libc_nano.a(lib_a-strtoul.o)

.text._DRV_SPI_PlibCallbackHandler%164
                0x0000914c       0xe0
 .text._DRV_SPI_PlibCallbackHandler
                0x0000914c       0xe0 build/sam_e54_xpro_winc1500/production/_ext/138683810/drv_spi.o

.text.spi_flash_enable%165
                0x0000922c       0xe0
 .text.spi_flash_enable
                0x0000922c       0xe0 build/sam_e54_xpro_winc1500/production/_ext/1114755757/spi_flash.o
                0x0000922c                spi_flash_enable

.text.m2m_ota_host_file_read_spi%166
                0x0000930c       0xdc
 .text.m2m_ota_host_file_read_spi
                0x0000930c       0xdc build/sam_e54_xpro_winc1500/production/_ext/1089847528/m2m_ota.o
                0x0000930c                m2m_ota_host_file_read_spi

.rodata%167     0x000093e8       0xdc
 .rodata        0x000093e8       0xdc build/sam_e54_xpro_winc1500/production/_ext/1089847528/m2m_ssl.o

.text.wait_for_firmware_start%168
                0x000094c4       0xd8
 .text.wait_for_firmware_start
                0x000094c4       0xd8 build/sam_e54_xpro_winc1500/production/_ext/1089847528/nmasic.o
                0x000094c4                wait_for_firmware_start

.rodata%169     0x0000959c       0xd4
 .rodata        0x0000959c       0xd4 build/sam_e54_xpro_winc1500/production/_ext/1089847528/m2m_ota.o

.text.SYS_TIME_PLIBCallback%170
                0x00009670       0xd4
 .text.SYS_TIME_PLIBCallback
                0x00009670       0xd4 build/sam_e54_xpro_winc1500/production/_ext/323285254/sys_time.o

.text._DRV_SPI_ResourceLock%171
                0x00009744       0xd2
 .text._DRV_SPI_ResourceLock
                0x00009744       0xd2 build/sam_e54_xpro_winc1500/production/_ext/138683810/drv_spi.o

.text.__mdiff%172
                0x00009816       0xc8
 .text.__mdiff  0x00009816       0xc8 c:/program files/microchip/xc32/v3.01/bin/bin/../../lib/gcc/pic32c/8.3.1/../../../../pic32c/lib/thumb/v7e-m+fp/hard\libc_nano.a(lib_a-mprec.o)
                0x00009816                __mdiff

.rodata.__mprec_tens%173
                0x000098e0       0xc8
 .rodata.__mprec_tens
                0x000098e0       0xc8 c:/program files/microchip/xc32/v3.01/bin/bin/../../lib/gcc/pic32c/8.3.1/../../../../pic32c/lib/thumb/v7e-m+fp/hard\libc_nano.a(lib_a-mprec.o)
                0x000098e0                __mprec_tens

.text.m2m_wifi_connect_prepare_msg%174
                0x000099a8       0xc6
 .text.m2m_wifi_connect_prepare_msg
                0x000099a8       0xc6 build/sam_e54_xpro_winc1500/production/_ext/1089847528/m2m_wifi.o

.text.hif_receive%175
                0x00009a70       0xc4
 .text.hif_receive
                0x00009a70       0xc4 build/sam_e54_xpro_winc1500/production/_ext/1089847528/m2m_hif.o
                0x00009a70                hif_receive

.text.nm_get_firmware_full_info%176
                0x00009b34       0xc4
 .text.nm_get_firmware_full_info
                0x00009b34       0xc4 build/sam_e54_xpro_winc1500/production/_ext/1089847528/nmdrv.o
                0x00009b34                nm_get_firmware_full_info

.text._DRV_SPI_ResourceUnlock%177
                0x00009bf8       0xbc
 .text._DRV_SPI_ResourceUnlock
                0x00009bf8       0xbc build/sam_e54_xpro_winc1500/production/_ext/138683810/drv_spi.o

.text.chip_wake%178
                0x00009cb4       0xbc
 .text.chip_wake
                0x00009cb4       0xbc build/sam_e54_xpro_winc1500/production/_ext/1089847528/nmasic.o
                0x00009cb4                chip_wake

.text.inet_addr%179
                0x00009d70       0xbc
 .text.inet_addr
                0x00009d70       0xbc build/sam_e54_xpro_winc1500/production/_ext/663370141/inet_addr.o
                0x00009d70                inet_addr

.text.__ssputs_r%180
                0x00009e2c       0xb6
 .text.__ssputs_r
                0x00009e2c       0xb6 c:/program files/microchip/xc32/v3.01/bin/bin/../../lib/gcc/pic32c/8.3.1/../../../../pic32c/lib/thumb/v7e-m+fp/hard\libc_nano.a(lib_a-__ssputs.o)
                0x00009e2c                __ssputs_r

.rodata%181     0x00009ee4       0xb4
 .rodata        0x00009ee4       0xb4 build/sam_e54_xpro_winc1500/production/_ext/1089847528/nmdrv.o

.text.SYS_TIME_HwTimerCompareUpdate%182
                0x00009f98       0xb4
 .text.SYS_TIME_HwTimerCompareUpdate
                0x00009f98       0xb4 build/sam_e54_xpro_winc1500/production/_ext/323285254/sys_time.o

.text._malloc_r%183
                0x0000a04c       0xb4
 .text._malloc_r
                0x0000a04c       0xb4 c:/program files/microchip/xc32/v3.01/bin/bin/../../lib/gcc/pic32c/8.3.1/../../../../pic32c/lib/thumb/v7e-m+fp/hard\libc_nano.a(lib_a-nano-mallocr.o)
                0x0000a04c                _malloc_r

.text.nmi_get_chipid%184
                0x0000a100       0xb0
 .text.nmi_get_chipid
                0x0000a100       0xb0 build/sam_e54_xpro_winc1500/production/_ext/1089847528/nmasic.o
                0x0000a100                nmi_get_chipid

.text.send%185  0x0000a1b0       0xb0
 .text.send     0x0000a1b0       0xb0 build/sam_e54_xpro_winc1500/production/_ext/663370141/socket.o
                0x0000a1b0                send

.text.recv%186  0x0000a260       0xb0
 .text.recv     0x0000a260       0xb0 build/sam_e54_xpro_winc1500/production/_ext/663370141/socket.o
                0x0000a260                recv

.text.SYS_TIME_TimerObjectCreate%187
                0x0000a310       0xb0
 .text.SYS_TIME_TimerObjectCreate
                0x0000a310       0xb0 build/sam_e54_xpro_winc1500/production/_ext/323285254/sys_time.o

.text._scanf_chars%188
                0x0000a3c0       0xb0
 .text._scanf_chars
                0x0000a3c0       0xb0 c:/program files/microchip/xc32/v3.01/bin/bin/../../lib/gcc/pic32c/8.3.1/../../../../pic32c/lib/thumb/v7e-m+fp/hard\libc_nano.a(lib_a-nano-vfscanf_i.o)
                0x0000a3c0                _scanf_chars

.text.DMAC_Initialize%189
                0x0000a470       0xac
 .text.DMAC_Initialize
                0x0000a470       0xac build/sam_e54_xpro_winc1500/production/_ext/1643761302/plib_dmac.o
                0x0000a470                DMAC_Initialize

.text.NVIC_Initialize%190
                0x0000a51c       0xa8
 .text.NVIC_Initialize
                0x0000a51c       0xa8 build/sam_e54_xpro_winc1500/production/_ext/1644068109/plib_nvic.o
                0x0000a51c                NVIC_Initialize

.text.SERCOM2_USART_Write%191
                0x0000a5c4       0xa8
 .text.SERCOM2_USART_Write
                0x0000a5c4       0xa8 build/sam_e54_xpro_winc1500/production/_ext/923560386/plib_sercom2_usart.o
                0x0000a5c4                SERCOM2_USART_Write

.text.__lshift%192
                0x0000a66c       0xa6
 .text.__lshift
                0x0000a66c       0xa6 c:/program files/microchip/xc32/v3.01/bin/bin/../../lib/gcc/pic32c/8.3.1/../../../../pic32c/lib/thumb/v7e-m+fp/hard\libc_nano.a(lib_a-mprec.o)
                0x0000a66c                __lshift

.text.inet_ntop%193
                0x0000a714       0xa0
 .text.inet_ntop
                0x0000a714       0xa0 build/sam_e54_xpro_winc1500/production/_ext/663370141/inet_ntop.o
                0x0000a714                inet_ntop

.text.spi_flash_load_to_cortus_mem%194
                0x0000a7b4       0xa0
 .text.spi_flash_load_to_cortus_mem
                0x0000a7b4       0xa0 build/sam_e54_xpro_winc1500/production/_ext/1114755757/spi_flash.o

.text.SYS_TIME_Initialize%195
                0x0000a854       0xa0
 .text.SYS_TIME_Initialize
                0x0000a854       0xa0 build/sam_e54_xpro_winc1500/production/_ext/323285254/sys_time.o
                0x0000a854                SYS_TIME_Initialize

.text%196       0x0000a900       0xa0
 .text          0x0000a900       0xa0 c:/program files/microchip/xc32/v3.01/bin/bin/../../lib/gcc/pic32c/8.3.1/../../../../pic32c/lib/thumb/v7e-m+fp/hard\libc_nano.a(lib_a-memchr.o)
                0x0000a900                memchr

.text.__d2b%197
                0x0000a9a0       0x9e
 .text.__d2b    0x0000a9a0       0x9e c:/program files/microchip/xc32/v3.01/bin/bin/../../lib/gcc/pic32c/8.3.1/../../../../pic32c/lib/thumb/v7e-m+fp/hard\libc_nano.a(lib_a-mprec.o)
                0x0000a9a0                __d2b

.text._DRV_SPI_UpdateTransferSetupAndAssertCS%198
                0x0000aa40       0x9c
 .text._DRV_SPI_UpdateTransferSetupAndAssertCS
                0x0000aa40       0x9c build/sam_e54_xpro_winc1500/production/_ext/138683810/drv_spi.o

.text.SERCOM4_SPI_TransferSetup%199
                0x0000aadc       0x9c
 .text.SERCOM4_SPI_TransferSetup
                0x0000aadc       0x9c build/sam_e54_xpro_winc1500/production/_ext/1854354360/plib_sercom4_spi_master.o
                0x0000aadc                SERCOM4_SPI_TransferSetup

.text._free_r%200
                0x0000ab78       0x9c
 .text._free_r  0x0000ab78       0x9c c:/program files/microchip/xc32/v3.01/bin/bin/../../lib/gcc/pic32c/8.3.1/../../../../pic32c/lib/thumb/v7e-m+fp/hard\libc_nano.a(lib_a-nano-freer.o)
                0x0000ab78                _free_r

.text.__pow5mult%201
                0x0000ac14       0x9c
 .text.__pow5mult
                0x0000ac14       0x9c c:/program files/microchip/xc32/v3.01/bin/bin/../../lib/gcc/pic32c/8.3.1/../../../../pic32c/lib/thumb/v7e-m+fp/hard\libc_nano.a(lib_a-mprec.o)
                0x0000ac14                __pow5mult

.text.connect%202
                0x0000acb0       0x98
 .text.connect  0x0000acb0       0x98 build/sam_e54_xpro_winc1500/production/_ext/663370141/socket.o
                0x0000acb0                connect

.text.shutdown%203
                0x0000ad48       0x94
 .text.shutdown
                0x0000ad48       0x94 build/sam_e54_xpro_winc1500/production/_ext/663370141/socket.o
                0x0000ad48                shutdown

.text.spi_flexible_flash_find_section%204
                0x0000addc       0x94
 .text.spi_flexible_flash_find_section
                0x0000addc       0x94 build/sam_e54_xpro_winc1500/production/_ext/1114755757/flexible_flash.o
                0x0000addc                spi_flexible_flash_find_section

.text.SYS_TIME_AddToList%205
                0x0000ae70       0x90
 .text.SYS_TIME_AddToList
                0x0000ae70       0x90 build/sam_e54_xpro_winc1500/production/_ext/323285254/sys_time.o

.text.Reset_Handler%206
                0x0000af00       0x90
 .text.Reset_Handler
                0x0000af00       0x90 build/sam_e54_xpro_winc1500/production/_ext/231993977/startup_xc32.o
                0x0000af00                Reset_Handler

.text.spi_flash_read%207
                0x0000af90       0x8c
 .text.spi_flash_read
                0x0000af90       0x8c build/sam_e54_xpro_winc1500/production/_ext/1114755757/spi_flash.o
                0x0000af90                spi_flash_read

.text.SERCOM2_USART_Initialize%208
                0x0000b01c       0x8c
 .text.SERCOM2_USART_Initialize
                0x0000b01c       0x8c build/sam_e54_xpro_winc1500/production/_ext/923560386/plib_sercom2_usart.o
                0x0000b01c                SERCOM2_USART_Initialize

.text.__pic32c_data_initialization%209
                0x0000b0a8       0x88
 .text.__pic32c_data_initialization
                0x0000b0a8       0x88 c:/program files/microchip/xc32/v3.01/bin/bin/../../lib/gcc/pic32c/8.3.1/../../../../pic32c/lib/thumb/v7e-m+fp/hard\libpic32c.a(data_init.o)
                0x0000b0a8                __pic32c_data_initialization

.text._WDRV_WINC_HostFileGetCallback%210
                0x0000b130       0x84
 .text._WDRV_WINC_HostFileGetCallback
                0x0000b130       0x84 build/sam_e54_xpro_winc1500/production/_ext/810064134/wdrv_winc.o

.text._DMAC_interruptHandler%211
                0x0000b1b4       0x80
 .text._DMAC_interruptHandler
                0x0000b1b4       0x80 build/sam_e54_xpro_winc1500/production/_ext/1643761302/plib_dmac.o
                0x0000b1b4                _DMAC_interruptHandler

.text.EIC_Initialize%212
                0x0000b234       0x80
 .text.EIC_Initialize
                0x0000b234       0x80 build/sam_e54_xpro_winc1500/production/_ext/2025184588/plib_eic.o
                0x0000b234                EIC_Initialize

.text.__multadd%213
                0x0000b2b4       0x7e
 .text.__multadd
                0x0000b2b4       0x7e c:/program files/microchip/xc32/v3.01/bin/bin/../../lib/gcc/pic32c/8.3.1/../../../../pic32c/lib/thumb/v7e-m+fp/hard\libc_nano.a(lib_a-mprec.o)
                0x0000b2b4                __multadd

.text.SYS_Initialize%214
                0x0000b334       0x7c
 .text.SYS_Initialize
                0x0000b334       0x7c build/sam_e54_xpro_winc1500/production/_ext/231993977/initialization.o
                0x0000b334                SYS_Initialize

.text._sungetc_r%215
                0x0000b3b0       0x7a
 .text._sungetc_r
                0x0000b3b0       0x7a c:/program files/microchip/xc32/v3.01/bin/bin/../../lib/gcc/pic32c/8.3.1/../../../../pic32c/lib/thumb/v7e-m+fp/hard\libc_nano.a(lib_a-nano-svfscanf.o)
                0x0000b3b0                _sungetc_r

.text.SERCOM2_USART_Read%216
                0x0000b42c       0x78
 .text.SERCOM2_USART_Read
                0x0000b42c       0x78 build/sam_e54_xpro_winc1500/production/_ext/923560386/plib_sercom2_usart.o
                0x0000b42c                SERCOM2_USART_Read

.text.APP_ExampleConnectNotifyCallback%217
                0x0000b4a4       0x78
 .text.APP_ExampleConnectNotifyCallback
                0x0000b4a4       0x78 build/sam_e54_xpro_winc1500/production/_ext/1360937237/example.o

.text.hif_register_cb%218
                0x0000b51c       0x74
 .text.hif_register_cb
                0x0000b51c       0x74 build/sam_e54_xpro_winc1500/production/_ext/1089847528/m2m_hif.o
                0x0000b51c                hif_register_cb

.text.nm_drv_init_download_mode%219
                0x0000b590       0x74
 .text.nm_drv_init_download_mode
                0x0000b590       0x74 build/sam_e54_xpro_winc1500/production/_ext/1089847528/nmdrv.o
                0x0000b590                nm_drv_init_download_mode

.rodata%220     0x0000b604       0x74
 .rodata        0x0000b604       0x74 build/sam_e54_xpro_winc1500/production/_ext/810064134/wdrv_winc.o

.text._findenv_r%221
                0x0000b678       0x74
 .text._findenv_r
                0x0000b678       0x74 c:/program files/microchip/xc32/v3.01/bin/bin/../../lib/gcc/pic32c/8.3.1/../../../../pic32c/lib/thumb/v7e-m+fp/hard\libc_nano.a(lib_a-getenv_r.o)
                0x0000b678                _findenv_r

.text.__submore%222
                0x0000b6ec       0x74
 .text.__submore
                0x0000b6ec       0x74 c:/program files/microchip/xc32/v3.01/bin/bin/../../lib/gcc/pic32c/8.3.1/../../../../pic32c/lib/thumb/v7e-m+fp/hard\libc_nano.a(lib_a-ungetc.o)
                0x0000b6ec                __submore

.text.WDRV_WINC_SPIInitialize%223
                0x0000b760       0x70
 .text.WDRV_WINC_SPIInitialize
                0x0000b760       0x70 build/sam_e54_xpro_winc1500/production/_ext/930086057/wdrv_winc_spi.o
                0x0000b760                WDRV_WINC_SPIInitialize

.text.nm_drv_deinit%224
                0x0000b7d0       0x70
 .text.nm_drv_deinit
                0x0000b7d0       0x70 build/sam_e54_xpro_winc1500/production/_ext/1089847528/nmdrv.o
                0x0000b7d0                nm_drv_deinit

.text.SYS_CONSOLE_Print%225
                0x0000b840       0x6c
 .text.SYS_CONSOLE_Print
                0x0000b840       0x6c build/sam_e54_xpro_winc1500/production/_ext/501133612/sys_console.o
                0x0000b840                SYS_CONSOLE_Print

.text.chip_sleep%226
                0x0000b8ac       0x68
 .text.chip_sleep
                0x0000b8ac       0x68 build/sam_e54_xpro_winc1500/production/_ext/1089847528/nmasic.o
                0x0000b8ac                chip_sleep

.text.APP_Tasks%227
                0x0000b914       0x68
 .text.APP_Tasks
                0x0000b914       0x68 build/sam_e54_xpro_winc1500/production/_ext/1360937237/app.o
                0x0000b914                APP_Tasks

.text._Balloc%228
                0x0000b97c       0x68
 .text._Balloc  0x0000b97c       0x68 c:/program files/microchip/xc32/v3.01/bin/bin/../../lib/gcc/pic32c/8.3.1/../../../../pic32c/lib/thumb/v7e-m+fp/hard\libc_nano.a(lib_a-mprec.o)
                0x0000b97c                _Balloc

.text.cpu_halt%229
                0x0000b9e4       0x66
 .text.cpu_halt
                0x0000b9e4       0x66 build/sam_e54_xpro_winc1500/production/_ext/1089847528/nmasic.o
                0x0000b9e4                cpu_halt

.text._WDRV_WINC_ConnNetCfg%230
                0x0000ba4a       0x66
 .text._WDRV_WINC_ConnNetCfg
                0x0000ba4a       0x66 build/sam_e54_xpro_winc1500/production/_ext/810064134/wdrv_winc_sta.o

.text.__sccl%231
                0x0000bab0       0x64
 .text.__sccl   0x0000bab0       0x64 c:/program files/microchip/xc32/v3.01/bin/bin/../../lib/gcc/pic32c/8.3.1/../../../../pic32c/lib/thumb/v7e-m+fp/hard\libc_nano.a(lib_a-sccl.o)
                0x0000bab0                __sccl

.text.WDRV_WINC_BSSCtxIsValid%232
                0x0000bb14       0x62
 .text.WDRV_WINC_BSSCtxIsValid
                0x0000bb14       0x62 build/sam_e54_xpro_winc1500/production/_ext/810064134/wdrv_winc_bssctx.o
                0x0000bb14                WDRV_WINC_BSSCtxIsValid

.text.DRV_SPI_TransferEventHandlerSet%233
                0x0000bb78       0x60
 .text.DRV_SPI_TransferEventHandlerSet
                0x0000bb78       0x60 build/sam_e54_xpro_winc1500/production/_ext/138683810/drv_spi.o
                0x0000bb78                DRV_SPI_TransferEventHandlerSet

.text.nm_drv_init_start%234
                0x0000bbd8       0x60
 .text.nm_drv_init_start
                0x0000bbd8       0x60 build/sam_e54_xpro_winc1500/production/_ext/1089847528/nmdrv.o
                0x0000bbd8                nm_drv_init_start

.text.PORT_Initialize%235
                0x0000bc38       0x60
 .text.PORT_Initialize
                0x0000bc38       0x60 build/sam_e54_xpro_winc1500/production/_ext/1644121260/plib_port.o
                0x0000bc38                PORT_Initialize

.rodata.__month_lengths%236
                0x0000bc98       0x60
 .rodata.__month_lengths
                0x0000bc98       0x60 c:/program files/microchip/xc32/v3.01/bin/bin/../../lib/gcc/pic32c/8.3.1/../../../../pic32c/lib/thumb/v7e-m+fp/hard\libc_nano.a(lib_a-month_lengths.o)
                0x0000bc98                __month_lengths

.text.__lo0bits%237
                0x0000bcf8       0x60
 .text.__lo0bits
                0x0000bcf8       0x60 c:/program files/microchip/xc32/v3.01/bin/bin/../../lib/gcc/pic32c/8.3.1/../../../../pic32c/lib/thumb/v7e-m+fp/hard\libc_nano.a(lib_a-mprec.o)
                0x0000bcf8                __lo0bits

.text.chip_deinit%238
                0x0000bd58       0x5c
 .text.chip_deinit
                0x0000bd58       0x5c build/sam_e54_xpro_winc1500/production/_ext/1089847528/nmasic.o
                0x0000bd58                chip_deinit

.text.m2m_ota_host_file_read_hif%239
                0x0000bdb4       0x5c
 .text.m2m_ota_host_file_read_hif
                0x0000bdb4       0x5c build/sam_e54_xpro_winc1500/production/_ext/1089847528/m2m_ota.o
                0x0000bdb4                m2m_ota_host_file_read_hif

.text.SYS_TIME_RemoveFromList%240
                0x0000be10       0x5c
 .text.SYS_TIME_RemoveFromList
                0x0000be10       0x5c build/sam_e54_xpro_winc1500/production/_ext/323285254/sys_time.o

.text._vsnprintf_r%241
                0x0000be6c       0x5c
 .text._vsnprintf_r
                0x0000be6c       0x5c c:/program files/microchip/xc32/v3.01/bin/bin/../../lib/gcc/pic32c/8.3.1/../../../../pic32c/lib/thumb/v7e-m+fp/hard\libc_nano.a(lib_a-vsnprintf.o)
                0x0000be6c                _vsniprintf_r
                0x0000be6c                _vsnprintf_r

.text._SPI_Rx%242
                0x0000bec8       0x58
 .text._SPI_Rx  0x0000bec8       0x58 build/sam_e54_xpro_winc1500/production/_ext/930086057/wdrv_winc_spi.o

.text.enable_interrupts%243
                0x0000bf20       0x58
 .text.enable_interrupts
                0x0000bf20       0x58 build/sam_e54_xpro_winc1500/production/_ext/1089847528/nmasic.o
                0x0000bf20                enable_interrupts

.text.nmi_get_mac_address%244
                0x0000bf78       0x58
 .text.nmi_get_mac_address
                0x0000bf78       0x58 build/sam_e54_xpro_winc1500/production/_ext/1089847528/nmasic.o
                0x0000bf78                nmi_get_mac_address

.text.nm_read_block%245
                0x0000bfd0       0x58
 .text.nm_read_block
                0x0000bfd0       0x58 build/sam_e54_xpro_winc1500/production/_ext/1089847528/nmbus.o
                0x0000bfd0                nm_read_block

.text.nm_write_block%246
                0x0000c028       0x58
 .text.nm_write_block
                0x0000c028       0x58 build/sam_e54_xpro_winc1500/production/_ext/1089847528/nmbus.o
                0x0000c028                nm_write_block

.text._WDRV_WINC_HostFileEraseCallback%247
                0x0000c080       0x58
 .text._WDRV_WINC_HostFileEraseCallback
                0x0000c080       0x58 build/sam_e54_xpro_winc1500/production/_ext/810064134/wdrv_winc.o

.text.SYS_TIME_TimerStart%248
                0x0000c0d8       0x58
 .text.SYS_TIME_TimerStart
                0x0000c0d8       0x58 build/sam_e54_xpro_winc1500/production/_ext/323285254/sys_time.o
                0x0000c0d8                SYS_TIME_TimerStart

.text._DRV_SPI_TX_DMA_CallbackHandler%249
                0x0000c130       0x54
 .text._DRV_SPI_TX_DMA_CallbackHandler
                0x0000c130       0x54 build/sam_e54_xpro_winc1500/production/_ext/138683810/drv_spi.o
                0x0000c130                _DRV_SPI_TX_DMA_CallbackHandler

.text.nm_drv_init_hold%250
                0x0000c184       0x54
 .text.nm_drv_init_hold
                0x0000c184       0x54 build/sam_e54_xpro_winc1500/production/_ext/1089847528/nmdrv.o
                0x0000c184                nm_drv_init_hold

.text.SYS_CONSOLE_Initialize%251
                0x0000c1d8       0x54
 .text.SYS_CONSOLE_Initialize
                0x0000c1d8       0x54 build/sam_e54_xpro_winc1500/production/_ext/501133612/sys_console.o
                0x0000c1d8                SYS_CONSOLE_Initialize

.text.sscanf%252
                0x0000c22c       0x54
 .text.sscanf   0x0000c22c       0x54 c:/program files/microchip/xc32/v3.01/bin/bin/../../lib/gcc/pic32c/8.3.1/../../../../pic32c/lib/thumb/v7e-m+fp/hard\libc_nano.a(lib_a-sscanf.o)
                0x0000c22c                siscanf
                0x0000c22c                sscanf

.text.WDRV_WINC_BSSReconnect%253
                0x0000c280       0x52
 .text.WDRV_WINC_BSSReconnect
                0x0000c280       0x52 build/sam_e54_xpro_winc1500/production/_ext/810064134/wdrv_winc_sta.o
                0x0000c280                WDRV_WINC_BSSReconnect

.text.SYS_TIME_DelayMS%254
                0x0000c2d4       0x50
 .text.SYS_TIME_DelayMS
                0x0000c2d4       0x50 build/sam_e54_xpro_winc1500/production/_ext/323285254/sys_time.o
                0x0000c2d4                SYS_TIME_DelayMS

.text%255       0x0000c324       0x50
 .text          0x0000c324       0x50 c:/program files/microchip/xc32/v3.01/bin/bin/../../lib/gcc/pic32c/8.3.1/thumb/v7e-m+fp/hard\libgcc.a(_arm_fixdfsi.o)
                0x0000c324                __aeabi_d2iz
                0x0000c324                __fixdfsi

.rodata%256     0x0000c374       0x4e
 .rodata        0x0000c374       0x4e c:/program files/microchip/xc32/v3.01/bin/bin/../../lib/gcc/pic32c/8.3.1/../../../../pic32c/lib/thumb/v7e-m+fp/hard\libc_nano.a(lib_a-tzset_r.o)

.text._DRV_SPI_DriverHandleValidate%257
                0x0000c3c4       0x4c
 .text._DRV_SPI_DriverHandleValidate
                0x0000c3c4       0x4c build/sam_e54_xpro_winc1500/production/_ext/138683810/drv_spi.o

.text._SPI_Tx%258
                0x0000c410       0x4c
 .text._SPI_Tx  0x0000c410       0x4c build/sam_e54_xpro_winc1500/production/_ext/930086057/wdrv_winc_spi.o

.text.m2m_ssl_init%259
                0x0000c45c       0x4c
 .text.m2m_ssl_init
                0x0000c45c       0x4c build/sam_e54_xpro_winc1500/production/_ext/1089847528/m2m_ssl.o
                0x0000c45c                m2m_ssl_init

.text.APP_ExampleInitialize%260
                0x0000c4a8       0x4c
 .text.APP_ExampleInitialize
                0x0000c4a8       0x4c build/sam_e54_xpro_winc1500/production/_ext/1360937237/example.o
                0x0000c4a8                APP_ExampleInitialize

.text._realloc_r%261
                0x0000c4f4       0x4c
 .text._realloc_r
                0x0000c4f4       0x4c c:/program files/microchip/xc32/v3.01/bin/bin/../../lib/gcc/pic32c/8.3.1/../../../../pic32c/lib/thumb/v7e-m+fp/hard\libc_nano.a(lib_a-nano-reallocr.o)
                0x0000c4f4                _realloc_r

.text._WDRV_WINC_OTAUpdateCallback%262
                0x0000c540       0x48
 .text._WDRV_WINC_OTAUpdateCallback
                0x0000c540       0x48 build/sam_e54_xpro_winc1500/production/_ext/810064134/wdrv_winc.o

.text.__libc_init_array%263
                0x0000c588       0x48
 .text.__libc_init_array
                0x0000c588       0x48 c:/program files/microchip/xc32/v3.01/bin/bin/../../lib/gcc/pic32c/8.3.1/../../../../pic32c/lib/thumb/v7e-m+fp/hard\libc_nano.a(lib_a-init.o)
                0x0000c588                __libc_init_array

.text.WDRV_WINC_BSSCtxSetSSID%264
                0x0000c5d0       0x44
 .text.WDRV_WINC_BSSCtxSetSSID
                0x0000c5d0       0x44 build/sam_e54_xpro_winc1500/production/_ext/810064134/wdrv_winc_bssctx.o
                0x0000c5d0                WDRV_WINC_BSSCtxSetSSID

.text.SYS_INT_SourceDisable%265
                0x0000c614       0x44
 .text.SYS_INT_SourceDisable
                0x0000c614       0x44 build/sam_e54_xpro_winc1500/production/_ext/203683476/sys_int.o
                0x0000c614                SYS_INT_SourceDisable

.text%266       0x0000c658       0x40
 .text          0x0000c658       0x40 c:/program files/microchip/xc32/v3.01/bin/bin/../../lib/gcc/pic32c/8.3.1/thumb/v7e-m+fp/hard/crtbegin.o

.text.WDRV_WINC_SPIDeinitialize%267
                0x0000c698       0x40
 .text.WDRV_WINC_SPIDeinitialize
                0x0000c698       0x40 build/sam_e54_xpro_winc1500/production/_ext/930086057/wdrv_winc_spi.o
                0x0000c698                WDRV_WINC_SPIDeinitialize

.text.m2m_ota_init%268
                0x0000c6d8       0x40
 .text.m2m_ota_init
                0x0000c6d8       0x40 build/sam_e54_xpro_winc1500/production/_ext/1089847528/m2m_ota.o
                0x0000c6d8                m2m_ota_init

.text.TC3_TimerInitialize%269
                0x0000c718       0x40
 .text.TC3_TimerInitialize
                0x0000c718       0x40 build/sam_e54_xpro_winc1500/production/_ext/1320145242/plib_tc3.o
                0x0000c718                TC3_TimerInitialize

.text.SYS_TIME_TimerAdd%270
                0x0000c758       0x40
 .text.SYS_TIME_TimerAdd
                0x0000c758       0x40 build/sam_e54_xpro_winc1500/production/_ext/323285254/sys_time.o

.text.__hi0bits%271
                0x0000c798       0x40
 .text.__hi0bits
                0x0000c798       0x40 c:/program files/microchip/xc32/v3.01/bin/bin/../../lib/gcc/pic32c/8.3.1/../../../../pic32c/lib/thumb/v7e-m+fp/hard\libc_nano.a(lib_a-mprec.o)
                0x0000c798                __hi0bits

.text.WDRV_WINC_SPISend%272
                0x0000c7d8       0x3e
 .text.WDRV_WINC_SPISend
                0x0000c7d8       0x3e build/sam_e54_xpro_winc1500/production/_ext/930086057/wdrv_winc_spi.o
                0x0000c7d8                WDRV_WINC_SPISend

.text.WDRV_WINC_SPIReceive%273
                0x0000c816       0x3e
 .text.WDRV_WINC_SPIReceive
                0x0000c816       0x3e build/sam_e54_xpro_winc1500/production/_ext/930086057/wdrv_winc_spi.o
                0x0000c816                WDRV_WINC_SPIReceive

.text.WDRV_WINC_AuthCtxSetWPA%274
                0x0000c854       0x3e
 .text.WDRV_WINC_AuthCtxSetWPA
                0x0000c854       0x3e build/sam_e54_xpro_winc1500/production/_ext/810064134/wdrv_winc_authctx.o
                0x0000c854                WDRV_WINC_AuthCtxSetWPA

.text._WDRV_WINC_SPITransferEventHandler%275
                0x0000c894       0x3c
 .text._WDRV_WINC_SPITransferEventHandler
                0x0000c894       0x3c build/sam_e54_xpro_winc1500/production/_ext/930086057/wdrv_winc_spi.o

.text.nm_spi_reset%276
                0x0000c8d0       0x3c
 .text.nm_spi_reset
                0x0000c8d0       0x3c build/sam_e54_xpro_winc1500/production/_ext/1089847528/nmspi.o
                0x0000c8d0                nm_spi_reset

.text.socketInit%277
                0x0000c90c       0x3c
 .text.socketInit
                0x0000c90c       0x3c build/sam_e54_xpro_winc1500/production/_ext/663370141/socket.o
                0x0000c90c                socketInit

.text.WDRV_WINC_LocalTimeToUTC%278
                0x0000c948       0x3c
 .text.WDRV_WINC_LocalTimeToUTC
                0x0000c948       0x3c build/sam_e54_xpro_winc1500/production/_ext/810064134/wdrv_winc_systime.o
                0x0000c948                WDRV_WINC_LocalTimeToUTC

.text.SERCOM4_SPI_Initialize%279
                0x0000c984       0x3c
 .text.SERCOM4_SPI_Initialize
                0x0000c984       0x3c build/sam_e54_xpro_winc1500/production/_ext/1854354360/plib_sercom4_spi_master.o
                0x0000c984                SERCOM4_SPI_Initialize

.text.SYS_TIME_GetTimerObject%280
                0x0000c9c0       0x3c
 .text.SYS_TIME_GetTimerObject
                0x0000c9c0       0x3c build/sam_e54_xpro_winc1500/production/_ext/323285254/sys_time.o

.text.SYS_TIME_TimerDestroy%281
                0x0000c9fc       0x3c
 .text.SYS_TIME_TimerDestroy
                0x0000c9fc       0x3c build/sam_e54_xpro_winc1500/production/_ext/323285254/sys_time.o
                0x0000c9fc                SYS_TIME_TimerDestroy

.text.__ssrefill_r%282
                0x0000ca38       0x3a
 .text.__ssrefill_r
                0x0000ca38       0x3a c:/program files/microchip/xc32/v3.01/bin/bin/../../lib/gcc/pic32c/8.3.1/../../../../pic32c/lib/thumb/v7e-m+fp/hard\libc_nano.a(lib_a-nano-svfscanf.o)
                0x0000ca38                __ssrefill_r

.text.hif_set_rx_done%283
                0x0000ca74       0x38
 .text.hif_set_rx_done
                0x0000ca74       0x38 build/sam_e54_xpro_winc1500/production/_ext/1089847528/m2m_hif.o

.text.hif_chip_wake%284
                0x0000caac       0x38
 .text.hif_chip_wake
                0x0000caac       0x38 build/sam_e54_xpro_winc1500/production/_ext/1089847528/m2m_hif.o
                0x0000caac                hif_chip_wake

.text.SYS_TIME_ResourceUnlock%285
                0x0000cae4       0x38
 .text.SYS_TIME_ResourceUnlock
                0x0000cae4       0x38 build/sam_e54_xpro_winc1500/production/_ext/323285254/sys_time.o

.text.m2m_wifi_connect_open%286
                0x0000cb1c       0x36
 .text.m2m_wifi_connect_open
                0x0000cb1c       0x36 build/sam_e54_xpro_winc1500/production/_ext/1089847528/m2m_wifi.o
                0x0000cb1c                m2m_wifi_connect_open

.text.hif_init%287
                0x0000cb54       0x34
 .text.hif_init
                0x0000cb54       0x34 build/sam_e54_xpro_winc1500/production/_ext/1089847528/m2m_hif.o
                0x0000cb54                hif_init

.text.socketDeinit%288
                0x0000cb88       0x34
 .text.socketDeinit
                0x0000cb88       0x34 build/sam_e54_xpro_winc1500/production/_ext/663370141/socket.o
                0x0000cb88                socketDeinit

.text.WDRV_WINC_IPUseDHCPSet%289
                0x0000cbbc       0x34
 .text.WDRV_WINC_IPUseDHCPSet
                0x0000cbbc       0x34 build/sam_e54_xpro_winc1500/production/_ext/810064134/wdrv_winc_socket.o
                0x0000cbbc                WDRV_WINC_IPUseDHCPSet

.text.Console_UART_Read%290
                0x0000cbf0       0x34
 .text.Console_UART_Read
                0x0000cbf0       0x34 build/sam_e54_xpro_winc1500/production/_ext/501133612/sys_console_uart.o
                0x0000cbf0                Console_UART_Read

.text.Console_UART_Write%291
                0x0000cc24       0x34
 .text.Console_UART_Write
                0x0000cc24       0x34 build/sam_e54_xpro_winc1500/production/_ext/501133612/sys_console_uart.o
                0x0000cc24                Console_UART_Write

.text.SYS_TIME_ResourceLock%292
                0x0000cc58       0x34
 .text.SYS_TIME_ResourceLock
                0x0000cc58       0x34 build/sam_e54_xpro_winc1500/production/_ext/323285254/sys_time.o

.text.memmove%293
                0x0000cc8c       0x34
 .text.memmove  0x0000cc8c       0x34 c:/program files/microchip/xc32/v3.01/bin/bin/../../lib/gcc/pic32c/8.3.1/../../../../pic32c/lib/thumb/v7e-m+fp/hard\libc_nano.a(lib_a-memmove.o)
                0x0000cc8c                memmove

.text.__mcmp%294
                0x0000ccc0       0x34
 .text.__mcmp   0x0000ccc0       0x34 c:/program files/microchip/xc32/v3.01/bin/bin/../../lib/gcc/pic32c/8.3.1/../../../../pic32c/lib/thumb/v7e-m+fp/hard\libc_nano.a(lib_a-mprec.o)
                0x0000ccc0                __mcmp

.text.hif_chip_sleep%295
                0x0000ccf4       0x30
 .text.hif_chip_sleep
                0x0000ccf4       0x30 build/sam_e54_xpro_winc1500/production/_ext/1089847528/m2m_hif.o
                0x0000ccf4                hif_chip_sleep

.text.WDRV_WINC_Initialize%296
                0x0000cd24       0x30
 .text.WDRV_WINC_Initialize
                0x0000cd24       0x30 build/sam_e54_xpro_winc1500/production/_ext/810064134/wdrv_winc.o
                0x0000cd24                WDRV_WINC_Initialize

.text.SYS_CONSOLE_Message%297
                0x0000cd54       0x30
 .text.SYS_CONSOLE_Message
                0x0000cd54       0x30 build/sam_e54_xpro_winc1500/production/_ext/501133612/sys_console.o
                0x0000cd54                SYS_CONSOLE_Message

.text.Console_UART_WriteCountGet%298
                0x0000cd84       0x30
 .text.Console_UART_WriteCountGet
                0x0000cd84       0x30 build/sam_e54_xpro_winc1500/production/_ext/501133612/sys_console_uart.o
                0x0000cd84                Console_UART_WriteCountGet

.text.Console_UART_WriteFreeBufferCountGet%299
                0x0000cdb4       0x30
 .text.Console_UART_WriteFreeBufferCountGet
                0x0000cdb4       0x30 build/sam_e54_xpro_winc1500/production/_ext/501133612/sys_console_uart.o
                0x0000cdb4                Console_UART_WriteFreeBufferCountGet

.text.Console_UART_ReadFreeBufferCountGet%300
                0x0000cde4       0x30
 .text.Console_UART_ReadFreeBufferCountGet
                0x0000cde4       0x30 build/sam_e54_xpro_winc1500/production/_ext/501133612/sys_console_uart.o
                0x0000cde4                Console_UART_ReadFreeBufferCountGet

.text.Console_UART_ReadCountGet%301
                0x0000ce14       0x30
 .text.Console_UART_ReadCountGet
                0x0000ce14       0x30 build/sam_e54_xpro_winc1500/production/_ext/501133612/sys_console_uart.o
                0x0000ce14                Console_UART_ReadCountGet

.text.SYS_TIME_UpdateTimerList%302
                0x0000ce44       0x30
 .text.SYS_TIME_UpdateTimerList
                0x0000ce44       0x30 build/sam_e54_xpro_winc1500/production/_ext/323285254/sys_time.o

.rodata.drvSPI0InitData%303
                0x0000ce74       0x30
 .rodata.drvSPI0InitData
                0x0000ce74       0x30 build/sam_e54_xpro_winc1500/production/_ext/231993977/initialization.o
                0x0000ce74                drvSPI0InitData

.text%304       0x0000cea4       0x30
 .text          0x0000cea4       0x30 c:/program files/microchip/xc32/v3.01/bin/bin/../../lib/gcc/pic32c/8.3.1/thumb/v7e-m+fp/hard\libgcc.a(_aeabi_uldivmod.o)
                0x0000cea4                __aeabi_uldivmod

.rodata.DAYS_IN_MONTH%305
                0x0000ced4       0x30
 .rodata.DAYS_IN_MONTH
                0x0000ced4       0x30 c:/program files/microchip/xc32/v3.01/bin/bin/../../lib/gcc/pic32c/8.3.1/../../../../pic32c/lib/thumb/v7e-m+fp/hard\libc_nano.a(lib_a-mktime.o)

.rodata._DAYS_BEFORE_MONTH%306
                0x0000cf04       0x30
 .rodata._DAYS_BEFORE_MONTH
                0x0000cf04       0x30 c:/program files/microchip/xc32/v3.01/bin/bin/../../lib/gcc/pic32c/8.3.1/../../../../pic32c/lib/thumb/v7e-m+fp/hard\libc_nano.a(lib_a-mktime.o)

.text.chip_apply_conf%307
                0x0000cf34       0x2e
 .text.chip_apply_conf
                0x0000cf34       0x2e build/sam_e54_xpro_winc1500/production/_ext/1089847528/nmasic.o
                0x0000cf34                chip_apply_conf

.text._Bfree%308
                0x0000cf62       0x2e
 .text._Bfree   0x0000cf62       0x2e c:/program files/microchip/xc32/v3.01/bin/bin/../../lib/gcc/pic32c/8.3.1/../../../../pic32c/lib/thumb/v7e-m+fp/hard\libc_nano.a(lib_a-mprec.o)
                0x0000cf62                _Bfree

.text.DMAC_ChannelSettingsSet%309
                0x0000cf90       0x2c
 .text.DMAC_ChannelSettingsSet
                0x0000cf90       0x2c build/sam_e54_xpro_winc1500/production/_ext/1643761302/plib_dmac.o
                0x0000cf90                DMAC_ChannelSettingsSet

.text.EIC_CallbackRegister%310
                0x0000cfbc       0x2c
 .text.EIC_CallbackRegister
                0x0000cfbc       0x2c build/sam_e54_xpro_winc1500/production/_ext/2025184588/plib_eic.o
                0x0000cfbc                EIC_CallbackRegister

.text.TC3_TimerInterruptHandler%311
                0x0000cfe8       0x2c
 .text.TC3_TimerInterruptHandler
                0x0000cfe8       0x2c build/sam_e54_xpro_winc1500/production/_ext/1320145242/plib_tc3.o
                0x0000cfe8                TC3_TimerInterruptHandler

.rodata.sysConsoleUARTDevDesc%312
                0x0000d014       0x2c
 .rodata.sysConsoleUARTDevDesc
                0x0000d014       0x2c build/sam_e54_xpro_winc1500/production/_ext/501133612/sys_console_uart.o
                0x0000d014                sysConsoleUARTDevDesc

.text.APP_ExampleDHCPAddressEventCallback%313
                0x0000d040       0x2c
 .text.APP_ExampleDHCPAddressEventCallback
                0x0000d040       0x2c build/sam_e54_xpro_winc1500/production/_ext/1360937237/example.o

.text._sbrk%314
                0x0000d06c       0x2c
 .text._sbrk    0x0000d06c       0x2c c:/program files/microchip/xc32/v3.01/bin/bin/../../lib/gcc/pic32c/8.3.1/../../../../pic32c/lib/thumb/v7e-m+fp/hard\libpic32c.a(sbrk.o)
                0x0000d06c                _sbrk

.text%315       0x0000d098       0x2c
 .text          0x0000d098       0x2c c:/program files/microchip/xc32/v3.01/bin/bin/../../lib/gcc/pic32c/8.3.1/thumb/v7e-m+fp/hard\libgcc.a(_arm_unorddf2.o)
                0x0000d098                __unorddf2
                0x0000d098                __aeabi_dcmpun

.text.spi_reset%316
                0x0000d0c4       0x2a
 .text.spi_reset
                0x0000d0c4       0x2a build/sam_e54_xpro_winc1500/production/_ext/1089847528/nmspi.o

.text.WDRV_WINC_BSSCtxSetChannel%317
                0x0000d0ee       0x2a
 .text.WDRV_WINC_BSSCtxSetChannel
                0x0000d0ee       0x2a build/sam_e54_xpro_winc1500/production/_ext/810064134/wdrv_winc_bssctx.o
                0x0000d0ee                WDRV_WINC_BSSCtxSetChannel

.text.TC3_Timer16bitCounterGet%318
                0x0000d118       0x28
 .text.TC3_Timer16bitCounterGet
                0x0000d118       0x28 build/sam_e54_xpro_winc1500/production/_ext/1320145242/plib_tc3.o
                0x0000d118                TC3_Timer16bitCounterGet

.text.SYS_TIME_TimerPeriodHasExpired%319
                0x0000d140       0x28
 .text.SYS_TIME_TimerPeriodHasExpired
                0x0000d140       0x28 build/sam_e54_xpro_winc1500/production/_ext/323285254/sys_time.o
                0x0000d140                SYS_TIME_TimerPeriodHasExpired

.rodata.drvSPI0remapDataBits%320
                0x0000d168       0x28
 .rodata.drvSPI0remapDataBits
                0x0000d168       0x28 build/sam_e54_xpro_winc1500/production/_ext/231993977/initialization.o
                0x0000d168                drvSPI0remapDataBits

.text.div%321   0x0000d190       0x28
 .text.div      0x0000d190       0x28 c:/program files/microchip/xc32/v3.01/bin/bin/../../lib/gcc/pic32c/8.3.1/../../../../pic32c/lib/thumb/v7e-m+fp/hard\libc_nano.a(lib_a-div.o)
                0x0000d190                div

.rodata.__mprec_bigtens%322
                0x0000d1b8       0x28
 .rodata.__mprec_bigtens
                0x0000d1b8       0x28 c:/program files/microchip/xc32/v3.01/bin/bin/../../lib/gcc/pic32c/8.3.1/../../../../pic32c/lib/thumb/v7e-m+fp/hard\libc_nano.a(lib_a-mprec.o)
                0x0000d1b8                __mprec_bigtens

.rodata%323     0x0000d1e0       0x28
 .rodata        0x0000d1e0       0x28 c:/program files/microchip/xc32/v3.01/bin/bin/../../lib/gcc/pic32c/8.3.1/../../../../pic32c/lib/thumb/v7e-m+fp/hard\libc_nano.a(lib_a-nano-vfscanf_i.o)

.text.nm_reset%324
                0x0000d208       0x26
 .text.nm_reset
                0x0000d208       0x26 build/sam_e54_xpro_winc1500/production/_ext/1121136421/nm_common.o
                0x0000d208                nm_reset

.text.m2m_wifi_enable_dhcp%325
                0x0000d22e       0x24
 .text.m2m_wifi_enable_dhcp
                0x0000d22e       0x24 build/sam_e54_xpro_winc1500/production/_ext/1089847528/m2m_wifi.o
                0x0000d22e                m2m_wifi_enable_dhcp

.text.m2m_wifi_get_mac_address%326
                0x0000d252       0x24
 .text.m2m_wifi_get_mac_address
                0x0000d252       0x24 build/sam_e54_xpro_winc1500/production/_ext/1089847528/m2m_wifi.o
                0x0000d252                m2m_wifi_get_mac_address

.text.WDRV_WINC_BSSCtxSetDefaults%327
                0x0000d276       0x24
 .text.WDRV_WINC_BSSCtxSetDefaults
                0x0000d276       0x24 build/sam_e54_xpro_winc1500/production/_ext/810064134/wdrv_winc_bssctx.o
                0x0000d276                WDRV_WINC_BSSCtxSetDefaults

.text.strncmp%328
                0x0000d29a       0x24
 .text.strncmp  0x0000d29a       0x24 c:/program files/microchip/xc32/v3.01/bin/bin/../../lib/gcc/pic32c/8.3.1/../../../../pic32c/lib/thumb/v7e-m+fp/hard\libc_nano.a(lib_a-strncmp.o)
                0x0000d29a                strncmp

.text.__ascii_mbtowc%329
                0x0000d2be       0x24
 .text.__ascii_mbtowc
                0x0000d2be       0x24 c:/program files/microchip/xc32/v3.01/bin/bin/../../lib/gcc/pic32c/8.3.1/../../../../pic32c/lib/thumb/v7e-m+fp/hard\libc_nano.a(lib_a-mbtowc_r.o)
                0x0000d2be                __ascii_mbtowc

.text.m2m_wifi_req_scan_result%330
                0x0000d2e2       0x22
 .text.m2m_wifi_req_scan_result
                0x0000d2e2       0x22 build/sam_e54_xpro_winc1500/production/_ext/1089847528/m2m_wifi.o
                0x0000d2e2                m2m_wifi_req_scan_result

.text.WDRV_MSDelay%331
                0x0000d304       0x22
 .text.WDRV_MSDelay
                0x0000d304       0x22 build/sam_e54_xpro_winc1500/production/_ext/550069128/wdrv_winc_osal.o
                0x0000d304                WDRV_MSDelay

.rodata%332     0x0000d326       0x22
 .rodata        0x0000d326       0x22 c:/program files/microchip/xc32/v3.01/bin/bin/../../lib/gcc/pic32c/8.3.1/../../../../pic32c/lib/thumb/v7e-m+fp/hard\libc_nano.a(lib_a-nano-vfprintf_i.o)

.text.m2m_wifi_download_mode%333
                0x0000d348       0x20
 .text.m2m_wifi_download_mode
                0x0000d348       0x20 build/sam_e54_xpro_winc1500/production/_ext/1089847528/m2m_wifi.o
                0x0000d348                m2m_wifi_download_mode

.text.EIC_EXTINT_7_InterruptHandler%334
                0x0000d368       0x20
 .text.EIC_EXTINT_7_InterruptHandler
                0x0000d368       0x20 build/sam_e54_xpro_winc1500/production/_ext/2025184588/plib_eic.o
                0x0000d368                EIC_EXTINT_7_InterruptHandler

.text.SYS_INT_SourceRestore%335
                0x0000d388       0x20
 .text.SYS_INT_SourceRestore
                0x0000d388       0x20 build/sam_e54_xpro_winc1500/production/_ext/203683476/sys_int.o
                0x0000d388                SYS_INT_SourceRestore

.text._sbrk_r%336
                0x0000d3a8       0x20
 .text._sbrk_r  0x0000d3a8       0x20 c:/program files/microchip/xc32/v3.01/bin/bin/../../lib/gcc/pic32c/8.3.1/../../../../pic32c/lib/thumb/v7e-m+fp/hard\libc_nano.a(lib_a-sbrkr.o)
                0x0000d3a8                _sbrk_r

.text.m2m_wifi_set_static_ip%337
                0x0000d3c8       0x1e
 .text.m2m_wifi_set_static_ip
                0x0000d3c8       0x1e build/sam_e54_xpro_winc1500/production/_ext/1089847528/m2m_wifi.o
                0x0000d3c8                m2m_wifi_set_static_ip

.text.WDRV_WINC_Status%338
                0x0000d3e6       0x1e
 .text.WDRV_WINC_Status
                0x0000d3e6       0x1e build/sam_e54_xpro_winc1500/production/_ext/810064134/wdrv_winc.o
                0x0000d3e6                WDRV_WINC_Status

.text.SYS_DMA_AddressingModeSetup%339
                0x0000d404       0x1e
 .text.SYS_DMA_AddressingModeSetup
                0x0000d404       0x1e build/sam_e54_xpro_winc1500/production/_ext/895123808/sys_dma.o
                0x0000d404                SYS_DMA_AddressingModeSetup

.text.hif_deinit%340
                0x0000d424       0x1c
 .text.hif_deinit
                0x0000d424       0x1c build/sam_e54_xpro_winc1500/production/_ext/1089847528/m2m_hif.o
                0x0000d424                hif_deinit

.text.m2m_wifi_deinit%341
                0x0000d440       0x1c
 .text.m2m_wifi_deinit
                0x0000d440       0x1c build/sam_e54_xpro_winc1500/production/_ext/1089847528/m2m_wifi.o
                0x0000d440                m2m_wifi_deinit

.text.m2m_wifi_default_connect%342
                0x0000d45c       0x1c
 .text.m2m_wifi_default_connect
                0x0000d45c       0x1c build/sam_e54_xpro_winc1500/production/_ext/1089847528/m2m_wifi.o
                0x0000d45c                m2m_wifi_default_connect

.text.WDRV_WINC_ISR%343
                0x0000d478       0x1c
 .text.WDRV_WINC_ISR
                0x0000d478       0x1c build/sam_e54_xpro_winc1500/production/_ext/810064134/wdrv_winc.o
                0x0000d478                WDRV_WINC_ISR

.text.SYS_DEBUG_Initialize%344
                0x0000d494       0x1c
 .text.SYS_DEBUG_Initialize
                0x0000d494       0x1c build/sam_e54_xpro_winc1500/production/_ext/1623561264/sys_debug.o
                0x0000d494                SYS_DEBUG_Initialize

.text.SYS_TIME_Counter64Update%345
                0x0000d4b0       0x1c
 .text.SYS_TIME_Counter64Update
                0x0000d4b0       0x1c build/sam_e54_xpro_winc1500/production/_ext/323285254/sys_time.o

.text.SYS_TIME_GetElapsedCount%346
                0x0000d4cc       0x1c
 .text.SYS_TIME_GetElapsedCount
                0x0000d4cc       0x1c build/sam_e54_xpro_winc1500/production/_ext/323285254/sys_time.o

.rodata.sysTimePlibAPI%347
                0x0000d4e8       0x1c
 .rodata.sysTimePlibAPI
                0x0000d4e8       0x1c build/sam_e54_xpro_winc1500/production/_ext/231993977/initialization.o
                0x0000d4e8                sysTimePlibAPI

.text.memcpy%348
                0x0000d504       0x1c
 .text.memcpy   0x0000d504       0x1c c:/program files/microchip/xc32/v3.01/bin/bin/../../lib/gcc/pic32c/8.3.1/../../../../pic32c/lib/thumb/v7e-m+fp/hard\libc_nano.a(lib_a-memcpy-stub.o)
                0x0000d504                memcpy

.text.vsnprintf%349
                0x0000d520       0x1c
 .text.vsnprintf
                0x0000d520       0x1c c:/program files/microchip/xc32/v3.01/bin/bin/../../lib/gcc/pic32c/8.3.1/../../../../pic32c/lib/thumb/v7e-m+fp/hard\libc_nano.a(lib_a-vsnprintf.o)
                0x0000d520                vsniprintf
                0x0000d520                vsnprintf

.text._calloc_r%350
                0x0000d53c       0x1c
 .text._calloc_r
                0x0000d53c       0x1c c:/program files/microchip/xc32/v3.01/bin/bin/../../lib/gcc/pic32c/8.3.1/../../../../pic32c/lib/thumb/v7e-m+fp/hard\libc_nano.a(lib_a-nano-callocr.o)
                0x0000d53c                _calloc_r

.text.WDRV_WINC_IPLinkActive%351
                0x0000d558       0x1a
 .text.WDRV_WINC_IPLinkActive
                0x0000d558       0x1a build/sam_e54_xpro_winc1500/production/_ext/810064134/wdrv_winc_socket.o
                0x0000d558                WDRV_WINC_IPLinkActive

.text.SYS_DMA_DataWidthSetup%352
                0x0000d572       0x1a
 .text.SYS_DMA_DataWidthSetup
                0x0000d572       0x1a build/sam_e54_xpro_winc1500/production/_ext/895123808/sys_dma.o
                0x0000d572                SYS_DMA_DataWidthSetup

.text.strchr%353
                0x0000d58c       0x1a
 .text.strchr   0x0000d58c       0x1a c:/program files/microchip/xc32/v3.01/bin/bin/../../lib/gcc/pic32c/8.3.1/../../../../pic32c/lib/thumb/v7e-m+fp/hard\libc_nano.a(lib_a-strchr.o)
                0x0000d58c                strchr

.text.__ascii_wctomb%354
                0x0000d5a6       0x1a
 .text.__ascii_wctomb
                0x0000d5a6       0x1a c:/program files/microchip/xc32/v3.01/bin/bin/../../lib/gcc/pic32c/8.3.1/../../../../pic32c/lib/thumb/v7e-m+fp/hard\libc_nano.a(lib_a-wctomb_r.o)
                0x0000d5a6                __ascii_wctomb

.text.WDRV_WINC_INTInitialize%355
                0x0000d5c0       0x18
 .text.WDRV_WINC_INTInitialize
                0x0000d5c0       0x18 build/sam_e54_xpro_winc1500/production/_ext/1232460686/wdrv_winc_eint.o
                0x0000d5c0                WDRV_WINC_INTInitialize

.text.hif_chip_sleep_sc%356
                0x0000d5d8       0x18
 .text.hif_chip_sleep_sc
                0x0000d5d8       0x18 build/sam_e54_xpro_winc1500/production/_ext/1089847528/m2m_hif.o
                0x0000d5d8                hif_chip_sleep_sc

.text.m2m_wifi_init_hold%357
                0x0000d5f0       0x18
 .text.m2m_wifi_init_hold
                0x0000d5f0       0x18 build/sam_e54_xpro_winc1500/production/_ext/1089847528/m2m_wifi.o
                0x0000d5f0                m2m_wifi_init_hold

.text.SERCOM2_USART_WritePendingBytesGet%358
                0x0000d608       0x18
 .text.SERCOM2_USART_WritePendingBytesGet
                0x0000d608       0x18 build/sam_e54_xpro_winc1500/production/_ext/923560386/plib_sercom2_usart.o

.text.SERCOM2_USART_ReadCountGet%359
                0x0000d620       0x18
 .text.SERCOM2_USART_ReadCountGet
                0x0000d620       0x18 build/sam_e54_xpro_winc1500/production/_ext/923560386/plib_sercom2_usart.o
                0x0000d620                SERCOM2_USART_ReadCountGet

.text.TC3_TimerStart%360
                0x0000d638       0x18
 .text.TC3_TimerStart
                0x0000d638       0x18 build/sam_e54_xpro_winc1500/production/_ext/1320145242/plib_tc3.o
                0x0000d638                TC3_TimerStart

.text.TC3_TimerStop%361
                0x0000d650       0x18
 .text.TC3_TimerStop
                0x0000d650       0x18 build/sam_e54_xpro_winc1500/production/_ext/1320145242/plib_tc3.o
                0x0000d650                TC3_TimerStop

.text.SYS_TIME_DelayIsComplete%362
                0x0000d668       0x18
 .text.SYS_TIME_DelayIsComplete
                0x0000d668       0x18 build/sam_e54_xpro_winc1500/production/_ext/323285254/sys_time.o
                0x0000d668                SYS_TIME_DelayIsComplete

.rodata.drvSPI0InterruptSources%363
                0x0000d680       0x18
 .rodata.drvSPI0InterruptSources
                0x0000d680       0x18 build/sam_e54_xpro_winc1500/production/_ext/231993977/initialization.o
                0x0000d680                drvSPI0InterruptSources

.rodata.sysConsole0UARTPlibAPI%364
                0x0000d698       0x18
 .rodata.sysConsole0UARTPlibAPI
                0x0000d698       0x18 build/sam_e54_xpro_winc1500/production/_ext/231993977/initialization.o
                0x0000d698                sysConsole0UARTPlibAPI

.text.WDRV_WINC_SocketRegisterEventCallback%365
                0x0000d6b0       0x16
 .text.WDRV_WINC_SocketRegisterEventCallback
                0x0000d6b0       0x16 build/sam_e54_xpro_winc1500/production/_ext/810064134/wdrv_winc_socket.o
                0x0000d6b0                WDRV_WINC_SocketRegisterEventCallback

.text.DRV_SPI_WriteTransferAdd%366
                0x0000d6c6       0x14
 .text.DRV_SPI_WriteTransferAdd
                0x0000d6c6       0x14 build/sam_e54_xpro_winc1500/production/_ext/138683810/drv_spi.o
                0x0000d6c6                DRV_SPI_WriteTransferAdd

.rodata%367     0x0000d6dc       0x14
 .rodata        0x0000d6dc       0x14 build/sam_e54_xpro_winc1500/production/_ext/930086057/wdrv_winc_spi.o

.text.SERCOM2_USART_ReadFreeBufferCountGet%368
                0x0000d6f0       0x14
 .text.SERCOM2_USART_ReadFreeBufferCountGet
                0x0000d6f0       0x14 build/sam_e54_xpro_winc1500/production/_ext/923560386/plib_sercom2_usart.o
                0x0000d6f0                SERCOM2_USART_ReadFreeBufferCountGet

.text.SERCOM2_USART_WriteFreeBufferCountGet%369
                0x0000d704       0x14
 .text.SERCOM2_USART_WriteFreeBufferCountGet
                0x0000d704       0x14 build/sam_e54_xpro_winc1500/production/_ext/923560386/plib_sercom2_usart.o
                0x0000d704                SERCOM2_USART_WriteFreeBufferCountGet

.text.TC3_Timer16bitPeriodSet%370
                0x0000d718       0x14
 .text.TC3_Timer16bitPeriodSet
                0x0000d718       0x14 build/sam_e54_xpro_winc1500/production/_ext/1320145242/plib_tc3.o
                0x0000d718                TC3_Timer16bitPeriodSet

.text.TC3_Timer16bitCompareSet%371
                0x0000d72c       0x14
 .text.TC3_Timer16bitCompareSet
                0x0000d72c       0x14 build/sam_e54_xpro_winc1500/production/_ext/1320145242/plib_tc3.o
                0x0000d72c                TC3_Timer16bitCompareSet

.text.Console_UART_Initialize%372
                0x0000d740       0x14
 .text.Console_UART_Initialize
                0x0000d740       0x14 build/sam_e54_xpro_winc1500/production/_ext/501133612/sys_console_uart.o
                0x0000d740                Console_UART_Initialize

.text.SYS_Tasks%373
                0x0000d754       0x14
 .text.SYS_Tasks
                0x0000d754       0x14 build/sam_e54_xpro_winc1500/production/_ext/231993977/tasks.o
                0x0000d754                SYS_Tasks

.text%374       0x0000d768       0x14
 .text          0x0000d768       0x14 c:/program files/microchip/xc32/v3.01/bin/bin/../../lib/gcc/pic32c/8.3.1/../../../../pic32c/lib/thumb/v7e-m+fp/hard\libc_nano.a(lib_a-strcmp.o)
                0x0000d768                strcmp

.text.strtoul%375
                0x0000d77c       0x14
 .text.strtoul  0x0000d77c       0x14 c:/program files/microchip/xc32/v3.01/bin/bin/../../lib/gcc/pic32c/8.3.1/../../../../pic32c/lib/thumb/v7e-m+fp/hard\libc_nano.a(lib_a-strtoul.o)
                0x0000d77c                strtoul

.text._DRV_SPI_RemoveTransferObjFromList%376
                0x0000d790       0x12
 .text._DRV_SPI_RemoveTransferObjFromList
                0x0000d790       0x12 build/sam_e54_xpro_winc1500/production/_ext/138683810/drv_spi.o

.text.nm_spi_read_reg%377
                0x0000d7a2       0x12
 .text.nm_spi_read_reg
                0x0000d7a2       0x12 build/sam_e54_xpro_winc1500/production/_ext/1089847528/nmspi.o
                0x0000d7a2                nm_spi_read_reg

.text.NVIC_INT_Disable%378
                0x0000d7b4       0x12
 .text.NVIC_INT_Disable
                0x0000d7b4       0x12 build/sam_e54_xpro_winc1500/production/_ext/1644068109/plib_nvic.o
                0x0000d7b4                NVIC_INT_Disable

.text.NVIC_INT_Restore%379
                0x0000d7c6       0x12
 .text.NVIC_INT_Restore
                0x0000d7c6       0x12 build/sam_e54_xpro_winc1500/production/_ext/1644068109/plib_nvic.o
                0x0000d7c6                NVIC_INT_Restore

.rodata%380     0x0000d7d8       0x12
 .rodata        0x0000d7d8       0x12 c:/program files/microchip/xc32/v3.01/bin/bin/../../lib/gcc/pic32c/8.3.1/../../../../pic32c/lib/thumb/v7e-m+fp/hard\libc_nano.a(lib_a-nano-vfprintf_float.o)

.text.__i2b%381
                0x0000d7ea       0x12
 .text.__i2b    0x0000d7ea       0x12 c:/program files/microchip/xc32/v3.01/bin/bin/../../lib/gcc/pic32c/8.3.1/../../../../pic32c/lib/thumb/v7e-m+fp/hard\libc_nano.a(lib_a-mprec.o)
                0x0000d7ea                __i2b

.rodata%382     0x0000d7fc       0x11
 .rodata        0x0000d7fc       0x11 c:/program files/microchip/xc32/v3.01/bin/bin/../../lib/gcc/pic32c/8.3.1/../../../../pic32c/lib/thumb/v7e-m+fp/hard\libc_nano.a(lib_a-nano-svfprintf.o)

.text.BSP_Initialize%383
                0x0000d810       0x10
 .text.BSP_Initialize
                0x0000d810       0x10 build/sam_e54_xpro_winc1500/production/_ext/1159541321/bsp.o
                0x0000d810                BSP_Initialize

.text.WDRV_WINC_GPIOChipEnableAssert%384
                0x0000d820       0x10
 .text.WDRV_WINC_GPIOChipEnableAssert
                0x0000d820       0x10 build/sam_e54_xpro_winc1500/production/_ext/1232460686/wdrv_winc_gpio.o
                0x0000d820                WDRV_WINC_GPIOChipEnableAssert

.text.WDRV_WINC_GPIOChipEnableDeassert%385
                0x0000d830       0x10
 .text.WDRV_WINC_GPIOChipEnableDeassert
                0x0000d830       0x10 build/sam_e54_xpro_winc1500/production/_ext/1232460686/wdrv_winc_gpio.o
                0x0000d830                WDRV_WINC_GPIOChipEnableDeassert

.text.nm_bus_iface_init%386
                0x0000d840       0x10
 .text.nm_bus_iface_init
                0x0000d840       0x10 build/sam_e54_xpro_winc1500/production/_ext/1089847528/nmbus.o
                0x0000d840                nm_bus_iface_init

.text.DMAC_ChannelCallbackRegister%387
                0x0000d850       0x10
 .text.DMAC_ChannelCallbackRegister
                0x0000d850       0x10 build/sam_e54_xpro_winc1500/production/_ext/1643761302/plib_dmac.o
                0x0000d850                DMAC_ChannelCallbackRegister

.text.EIC_InterruptEnable%388
                0x0000d860       0x10
 .text.EIC_InterruptEnable
                0x0000d860       0x10 build/sam_e54_xpro_winc1500/production/_ext/2025184588/plib_eic.o
                0x0000d860                EIC_InterruptEnable

.text.EIC_InterruptDisable%389
                0x0000d870       0x10
 .text.EIC_InterruptDisable
                0x0000d870       0x10 build/sam_e54_xpro_winc1500/production/_ext/2025184588/plib_eic.o
                0x0000d870                EIC_InterruptDisable

.text.NVMCTRL_Initialize%390
                0x0000d880       0x10
 .text.NVMCTRL_Initialize
                0x0000d880       0x10 build/sam_e54_xpro_winc1500/production/_ext/1370199163/plib_nvmctrl.o
                0x0000d880                NVMCTRL_Initialize

.text.SERCOM4_SPI_IsTransmitterBusy%391
                0x0000d890       0x10
 .text.SERCOM4_SPI_IsTransmitterBusy
                0x0000d890       0x10 build/sam_e54_xpro_winc1500/production/_ext/1854354360/plib_sercom4_spi_master.o
                0x0000d890                SERCOM4_SPI_IsTransmitterBusy

.text.Console_UART_Status%392
                0x0000d8a0       0x10
 .text.Console_UART_Status
                0x0000d8a0       0x10 build/sam_e54_xpro_winc1500/production/_ext/501133612/sys_console_uart.o
                0x0000d8a0                Console_UART_Status

.rodata.drvSPI0PlibAPI%393
                0x0000d8b0       0x10
 .rodata.drvSPI0PlibAPI
                0x0000d8b0       0x10 build/sam_e54_xpro_winc1500/production/_ext/231993977/initialization.o
                0x0000d8b0                drvSPI0PlibAPI

.text.malloc%394
                0x0000d8c0       0x10
 .text.malloc   0x0000d8c0       0x10 c:/program files/microchip/xc32/v3.01/bin/bin/../../lib/gcc/pic32c/8.3.1/../../../../pic32c/lib/thumb/v7e-m+fp/hard\libc_nano.a(lib_a-malloc.o)
                0x0000d8c0                malloc

.text.free%395  0x0000d8d0       0x10
 .text.free     0x0000d8d0       0x10 c:/program files/microchip/xc32/v3.01/bin/bin/../../lib/gcc/pic32c/8.3.1/../../../../pic32c/lib/thumb/v7e-m+fp/hard\libc_nano.a(lib_a-malloc.o)
                0x0000d8d0                free

.text.memset%396
                0x0000d8e0       0x10
 .text.memset   0x0000d8e0       0x10 c:/program files/microchip/xc32/v3.01/bin/bin/../../lib/gcc/pic32c/8.3.1/../../../../pic32c/lib/thumb/v7e-m+fp/hard\libc_nano.a(lib_a-memset.o)
                0x0000d8e0                memset

.text%397       0x0000d8f0       0x10
 .text          0x0000d8f0       0x10 c:/program files/microchip/xc32/v3.01/bin/bin/../../lib/gcc/pic32c/8.3.1/../../../../pic32c/lib/thumb/v7e-m+fp/hard\libc_nano.a(lib_a-strlen.o)
                0x0000d8f0                strlen

.text.strcpy%398
                0x0000d900       0x10
 .text.strcpy   0x0000d900       0x10 c:/program files/microchip/xc32/v3.01/bin/bin/../../lib/gcc/pic32c/8.3.1/../../../../pic32c/lib/thumb/v7e-m+fp/hard\libc_nano.a(lib_a-strcpy.o)
                0x0000d900                strcpy

.text._malloc_usable_size_r%399
                0x0000d910       0x10
 .text._malloc_usable_size_r
                0x0000d910       0x10 c:/program files/microchip/xc32/v3.01/bin/bin/../../lib/gcc/pic32c/8.3.1/../../../../pic32c/lib/thumb/v7e-m+fp/hard\libc_nano.a(lib_a-nano-msizer.o)
                0x0000d910                _malloc_usable_size_r

.rodata%400     0x0000d920        0xf
 .rodata        0x0000d920        0xf c:/program files/microchip/xc32/v3.01/bin/bin/../../lib/gcc/pic32c/8.3.1/../../../../pic32c/lib/thumb/v7e-m+fp/hard\libc_nano.a(lib_a-dtoa.o)

.text.WDRV_WINC_AuthCtxSetOpen%401
                0x0000d930        0xe
 .text.WDRV_WINC_AuthCtxSetOpen
                0x0000d930        0xe build/sam_e54_xpro_winc1500/production/_ext/810064134/wdrv_winc_authctx.o
                0x0000d930                WDRV_WINC_AuthCtxSetOpen

.text.main%402  0x0000d93e        0xe
 .text.main     0x0000d93e        0xe build/sam_e54_xpro_winc1500/production/_ext/1360937237/main.o
                0x0000d93e                main

.text._getenv_r%403
                0x0000d94c        0xe
 .text._getenv_r
                0x0000d94c        0xe c:/program files/microchip/xc32/v3.01/bin/bin/../../lib/gcc/pic32c/8.3.1/../../../../pic32c/lib/thumb/v7e-m+fp/hard\libc_nano.a(lib_a-getenv_r.o)
                0x0000d94c                _getenv_r

.text.WDRV_WINC_GPIOResetAssert%404
                0x0000a8f4        0xc
 .text.WDRV_WINC_GPIOResetAssert
                0x0000a8f4        0xc build/sam_e54_xpro_winc1500/production/_ext/1232460686/wdrv_winc_gpio.o
                0x0000a8f4                WDRV_WINC_GPIOResetAssert

.text.WDRV_WINC_GPIOResetDeassert%405
                0x0000d95c        0xc
 .text.WDRV_WINC_GPIOResetDeassert
                0x0000d95c        0xc build/sam_e54_xpro_winc1500/production/_ext/1232460686/wdrv_winc_gpio.o
                0x0000d95c                WDRV_WINC_GPIOResetDeassert

.text.m2m_wifi_get_num_ap_found%406
                0x0000d968        0xc
 .text.m2m_wifi_get_num_ap_found
                0x0000d968        0xc build/sam_e54_xpro_winc1500/production/_ext/1089847528/m2m_wifi.o
                0x0000d968                m2m_wifi_get_num_ap_found

.text.m2m_wifi_get_state%407
                0x0000d974        0xc
 .text.m2m_wifi_get_state
                0x0000d974        0xc build/sam_e54_xpro_winc1500/production/_ext/1089847528/m2m_wifi.o
                0x0000d974                m2m_wifi_get_state

.text.nm_spi_lock_init%408
                0x0000d980        0xc
 .text.nm_spi_lock_init
                0x0000d980        0xc build/sam_e54_xpro_winc1500/production/_ext/1089847528/nmspi.o
                0x0000d980                nm_spi_lock_init

.text.nm_spi_deinit%409
                0x0000d98c        0xc
 .text.nm_spi_deinit
                0x0000d98c        0xc build/sam_e54_xpro_winc1500/production/_ext/1089847528/nmspi.o
                0x0000d98c                nm_spi_deinit

.text.registerSocketEventCallback%410
                0x0000d998        0xc
 .text.registerSocketEventCallback
                0x0000d998        0xc build/sam_e54_xpro_winc1500/production/_ext/663370141/socket.o
                0x0000d998                registerSocketEventCallback

.text.DMAC_ChannelSettingsGet%411
                0x0000d9a4        0xc
 .text.DMAC_ChannelSettingsGet
                0x0000d9a4        0xc build/sam_e54_xpro_winc1500/production/_ext/1643761302/plib_dmac.o
                0x0000d9a4                DMAC_ChannelSettingsGet

.text.SERCOM4_SPI_CallbackRegister%412
                0x0000d9b0        0xc
 .text.SERCOM4_SPI_CallbackRegister
                0x0000d9b0        0xc build/sam_e54_xpro_winc1500/production/_ext/1854354360/plib_sercom4_spi_master.o
                0x0000d9b0                SERCOM4_SPI_CallbackRegister

.text.TC3_TimerCallbackRegister%413
                0x0000d9bc        0xc
 .text.TC3_TimerCallbackRegister
                0x0000d9bc        0xc build/sam_e54_xpro_winc1500/production/_ext/1320145242/plib_tc3.o
                0x0000d9bc                TC3_TimerCallbackRegister

.text.SYS_DEBUG_ConsoleInstanceGet%414
                0x0000d9c8        0xc
 .text.SYS_DEBUG_ConsoleInstanceGet
                0x0000d9c8        0xc build/sam_e54_xpro_winc1500/production/_ext/1623561264/sys_debug.o
                0x0000d9c8                SYS_DEBUG_ConsoleInstanceGet

.text.SYS_DEBUG_ErrorLevelGet%415
                0x0000d9d4        0xc
 .text.SYS_DEBUG_ErrorLevelGet
                0x0000d9d4        0xc build/sam_e54_xpro_winc1500/production/_ext/1623561264/sys_debug.o
                0x0000d9d4                SYS_DEBUG_ErrorLevelGet

.rodata.sysConsole0Init%416
                0x0000d9e0        0xc
 .rodata.sysConsole0Init
                0x0000d9e0        0xc build/sam_e54_xpro_winc1500/production/_ext/231993977/initialization.o
                0x0000d9e0                sysConsole0Init

.text.APP_Initialize%417
                0x0000d9ec        0xc
 .text.APP_Initialize
                0x0000d9ec        0xc build/sam_e54_xpro_winc1500/production/_ext/1360937237/app.o
                0x0000d9ec                APP_Initialize

.text.tzset%418
                0x0000d9f8        0xc
 .text.tzset    0x0000d9f8        0xc c:/program files/microchip/xc32/v3.01/bin/bin/../../lib/gcc/pic32c/8.3.1/../../../../pic32c/lib/thumb/v7e-m+fp/hard\libc_nano.a(lib_a-tzset.o)
                0x0000d9f8                tzset

.rodata.p05.7453%419
                0x0000da04        0xc
 .rodata.p05.7453
                0x0000da04        0xc c:/program files/microchip/xc32/v3.01/bin/bin/../../lib/gcc/pic32c/8.3.1/../../../../pic32c/lib/thumb/v7e-m+fp/hard\libc_nano.a(lib_a-mprec.o)

.rodata%420     0x0000da10        0xb
 .rodata        0x0000da10        0xb c:/program files/microchip/xc32/v3.01/bin/bin/../../lib/gcc/pic32c/8.3.1/../../../../pic32c/lib/thumb/v7e-m+fp/hard\libc_nano.a(lib_a-locale.o)

.text.WDRV_WINC_INTDeinitialize%421
                0x0000da1c        0xa
 .text.WDRV_WINC_INTDeinitialize
                0x0000da1c        0xa build/sam_e54_xpro_winc1500/production/_ext/1232460686/wdrv_winc_eint.o
                0x0000da1c                WDRV_WINC_INTDeinitialize

.text.DMAC_0_InterruptHandler%422
                0x0000da26        0xa
 .text.DMAC_0_InterruptHandler
                0x0000da26        0xa build/sam_e54_xpro_winc1500/production/_ext/1643761302/plib_dmac.o
                0x0000da26                DMAC_0_InterruptHandler

.text.DMAC_1_InterruptHandler%423
                0x0000da30        0xa
 .text.DMAC_1_InterruptHandler
                0x0000da30        0xa build/sam_e54_xpro_winc1500/production/_ext/1643761302/plib_dmac.o
                0x0000da30                DMAC_1_InterruptHandler

.text.DMAC_2_InterruptHandler%424
                0x0000da3a        0xa
 .text.DMAC_2_InterruptHandler
                0x0000da3a        0xa build/sam_e54_xpro_winc1500/production/_ext/1643761302/plib_dmac.o
                0x0000da3a                DMAC_2_InterruptHandler

.text.DMAC_3_InterruptHandler%425
                0x0000da44        0xa
 .text.DMAC_3_InterruptHandler
                0x0000da44        0xa build/sam_e54_xpro_winc1500/production/_ext/1643761302/plib_dmac.o
                0x0000da44                DMAC_3_InterruptHandler

.text.SYS_CONSOLE_HandleGet%426
                0x0000da4e        0xa
 .text.SYS_CONSOLE_HandleGet
                0x0000da4e        0xa build/sam_e54_xpro_winc1500/production/_ext/501133612/sys_console.o
                0x0000da4e                SYS_CONSOLE_HandleGet

.text.nm_sleep%427
                0x0000da58        0x8
 .text.nm_sleep
                0x0000da58        0x8 build/sam_e54_xpro_winc1500/production/_ext/1121136421/nm_common.o
                0x0000da58                nm_sleep

.text.m2m_wifi_handle_events%428
                0x0000da60        0x8
 .text.m2m_wifi_handle_events
                0x0000da60        0x8 build/sam_e54_xpro_winc1500/production/_ext/1089847528/m2m_wifi.o
                0x0000da60                m2m_wifi_handle_events

.text.nm_bus_reset%429
                0x0000da68        0x8
 .text.nm_bus_reset
                0x0000da68        0x8 build/sam_e54_xpro_winc1500/production/_ext/1089847528/nmbus.o
                0x0000da68                nm_bus_reset

.text.nm_read_reg%430
                0x0000da70        0x8
 .text.nm_read_reg
                0x0000da70        0x8 build/sam_e54_xpro_winc1500/production/_ext/1089847528/nmbus.o
                0x0000da70                nm_read_reg

.text.nm_read_reg_with_ret%431
                0x0000da78        0x8
 .text.nm_read_reg_with_ret
                0x0000da78        0x8 build/sam_e54_xpro_winc1500/production/_ext/1089847528/nmbus.o
                0x0000da78                nm_read_reg_with_ret

.text.nm_write_reg%432
                0x0000da80        0x8
 .text.nm_write_reg
                0x0000da80        0x8 build/sam_e54_xpro_winc1500/production/_ext/1089847528/nmbus.o
                0x0000da80                nm_write_reg

.text.SERCOM2_USART_WriteCountGet%433
                0x0000da88        0x8
 .text.SERCOM2_USART_WriteCountGet
                0x0000da88        0x8 build/sam_e54_xpro_winc1500/production/_ext/923560386/plib_sercom2_usart.o
                0x0000da88                SERCOM2_USART_WriteCountGet

.text.TC3_TimerFrequencyGet%434
                0x0000da90        0x8
 .text.TC3_TimerFrequencyGet
                0x0000da90        0x8 build/sam_e54_xpro_winc1500/production/_ext/1320145242/plib_tc3.o
                0x0000da90                TC3_TimerFrequencyGet

.text.SYS_INT_Disable%435
                0x0000da98        0x8
 .text.SYS_INT_Disable
                0x0000da98        0x8 build/sam_e54_xpro_winc1500/production/_ext/203683476/sys_int.o
                0x0000da98                SYS_INT_Disable

.text.SYS_INT_Restore%436
                0x0000daa0        0x8
 .text.SYS_INT_Restore
                0x0000daa0        0x8 build/sam_e54_xpro_winc1500/production/_ext/203683476/sys_int.o
                0x0000daa0                SYS_INT_Restore

.rodata.drvSPI0remapClockPhase%437
                0x0000daa8        0x8
 .rodata.drvSPI0remapClockPhase
                0x0000daa8        0x8 build/sam_e54_xpro_winc1500/production/_ext/231993977/initialization.o
                0x0000daa8                drvSPI0remapClockPhase

.rodata.drvSPI0remapClockPolarity%438
                0x0000dab0        0x8
 .rodata.drvSPI0remapClockPolarity
                0x0000dab0        0x8 build/sam_e54_xpro_winc1500/production/_ext/231993977/initialization.o
                0x0000dab0                drvSPI0remapClockPolarity

.rodata.sysTimeInitData%439
                0x0000dab8        0x8
 .rodata.sysTimeInitData
                0x0000dab8        0x8 build/sam_e54_xpro_winc1500/production/_ext/231993977/initialization.o
                0x0000dab8                sysTimeInitData

.text.__gettzinfo%440
                0x0000dac0        0x8
 .text.__gettzinfo
                0x0000dac0        0x8 c:/program files/microchip/xc32/v3.01/bin/bin/../../lib/gcc/pic32c/8.3.1/../../../../pic32c/lib/thumb/v7e-m+fp/hard\libc_nano.a(lib_a-gettzinfo.o)
                0x0000dac0                __gettzinfo

.text._localeconv_r%441
                0x0000dac8        0x8
 .text._localeconv_r
                0x0000dac8        0x8 c:/program files/microchip/xc32/v3.01/bin/bin/../../lib/gcc/pic32c/8.3.1/../../../../pic32c/lib/thumb/v7e-m+fp/hard\libc_nano.a(lib_a-localeconv.o)
                0x0000dac8                _localeconv_r

.text.nm_bus_iface_deinit%442
                0x0000028c        0x4
 .text.nm_bus_iface_deinit
                0x0000028c        0x4 build/sam_e54_xpro_winc1500/production/_ext/1089847528/nmbus.o
                0x0000028c                nm_bus_iface_deinit

.text.PORT_GroupSet%443
                0x0000dad0        0x4
 .text.PORT_GroupSet
                0x0000dad0        0x4 build/sam_e54_xpro_winc1500/production/_ext/1644121260/plib_port.o
                0x0000dad0                PORT_GroupSet

.text.PORT_GroupClear%444
                0x0000dad4        0x4
 .text.PORT_GroupClear
                0x0000dad4        0x4 build/sam_e54_xpro_winc1500/production/_ext/1644121260/plib_port.o
                0x0000dad4                PORT_GroupClear

.text.Console_UART_Flush%445
                0x0000dad8        0x4
 .text.Console_UART_Flush
                0x0000dad8        0x4 build/sam_e54_xpro_winc1500/production/_ext/501133612/sys_console_uart.o
                0x0000dad8                Console_UART_Flush

.rodata.debugInit%446
                0x0000dadc        0x4
 .rodata.debugInit
                0x0000dadc        0x4 build/sam_e54_xpro_winc1500/production/_ext/231993977/initialization.o
                0x0000dadc                debugInit

.rodata.sysConsole0UARTInitData%447
                0x0000dae0        0x4
 .rodata.sysConsole0UARTInitData
                0x0000dae0        0x4 build/sam_e54_xpro_winc1500/production/_ext/231993977/initialization.o
                0x0000dae0                sysConsole0UARTInitData

.text%448       0x0000dae4        0x4
 .text          0x0000dae4        0x4 c:/program files/microchip/xc32/v3.01/bin/bin/../../lib/gcc/pic32c/8.3.1/thumb/v7e-m+fp/hard\libgcc.a(_dvmd_tls.o)
                0x0000dae4                __aeabi_idiv0
                0x0000dae4                __aeabi_ldiv0

.text._tzset_unlocked%449
                0x0000dae8        0x4
 .text._tzset_unlocked
                0x0000dae8        0x4 c:/program files/microchip/xc32/v3.01/bin/bin/../../lib/gcc/pic32c/8.3.1/../../../../pic32c/lib/thumb/v7e-m+fp/hard\libc_nano.a(lib_a-tzset.o)
                0x0000dae8                _tzset_unlocked

.rodata%450     0x0000daec        0x4
 .rodata        0x0000daec        0x4 c:/program files/microchip/xc32/v3.01/bin/bin/../../lib/gcc/pic32c/8.3.1/../../../../pic32c/lib/thumb/v7e-m+fp/hard\libc_nano.a(lib_a-tzvars.o)

.text.__seofread%451
                0x0000daf0        0x4
 .text.__seofread
                0x0000daf0        0x4 c:/program files/microchip/xc32/v3.01/bin/bin/../../lib/gcc/pic32c/8.3.1/../../../../pic32c/lib/thumb/v7e-m+fp/hard\libc_nano.a(lib_a-stdio.o)
                0x0000daf0                __seofread

.text._strtoul_r%452
                0x0000daf4        0x4
 .text._strtoul_r
                0x0000daf4        0x4 c:/program files/microchip/xc32/v3.01/bin/bin/../../lib/gcc/pic32c/8.3.1/../../../../pic32c/lib/thumb/v7e-m+fp/hard\libc_nano.a(lib_a-strtoul.o)
                0x0000daf4                _strtoul_r

.rodata%453     0x0000daf8        0x4
 .rodata        0x0000daf8        0x4 c:/program files/microchip/xc32/v3.01/bin/bin/../../lib/gcc/pic32c/8.3.1/../../../../pic32c/lib/thumb/v7e-m+fp/hard\libc_nano.a(lib_a-nano-svfscanf.o)

.text._strtol_r%454
                0x0000dafc        0x4
 .text._strtol_r
                0x0000dafc        0x4 c:/program files/microchip/xc32/v3.01/bin/bin/../../lib/gcc/pic32c/8.3.1/../../../../pic32c/lib/thumb/v7e-m+fp/hard\libc_nano.a(lib_a-strtol.o)
                0x0000dafc                _strtol_r

.text.m2m_hif_cb%455
                0x000078b6        0x2
 .text.m2m_hif_cb
                0x000078b6        0x2 build/sam_e54_xpro_winc1500/production/_ext/1089847528/m2m_hif.o

.text.EVSYS_Initialize%456
                0x00008e92        0x2
 .text.EVSYS_Initialize
                0x00008e92        0x2 build/sam_e54_xpro_winc1500/production/_ext/581797455/plib_evsys.o
                0x00008e92                EVSYS_Initialize

.text.Console_UART_Tasks%457
                0x000098de        0x2
 .text.Console_UART_Tasks
                0x000098de        0x2 build/sam_e54_xpro_winc1500/production/_ext/501133612/sys_console_uart.o
                0x000098de                Console_UART_Tasks

.text.Dummy_Handler%458
                0x00009a6e        0x2
 .text.Dummy_Handler
                0x00009a6e        0x2 build/sam_e54_xpro_winc1500/production/_ext/231993977/interrupts.o
                0x00009a6e                EIC_EXTINT_9_Handler
                0x00009a6e                TCC0_MC5_Handler
                0x00009a6e                SVCall_Handler
                0x00009a6e                SERCOM0_2_Handler
                0x00009a6e                USB_SOF_HSOF_Handler
                0x00009a6e                TCC4_OTHER_Handler
                0x00009a6e                TCC2_MC2_Handler
                0x00009a6e                EVSYS_0_Handler
                0x00009a6e                TRNG_Handler
                0x00009a6e                TC2_Handler
                0x00009a6e                USB_TRCPT0_Handler
                0x00009a6e                DAC_OTHER_Handler
                0x00009a6e                AC_Handler
                0x00009a6e                DAC_EMPTY_0_Handler
                0x00009a6e                DMAC_OTHER_Handler
                0x00009a6e                EIC_EXTINT_5_Handler
                0x00009a6e                SERCOM3_1_Handler
                0x00009a6e                SysTick_Handler
                0x00009a6e                SERCOM3_2_Handler
                0x00009a6e                EIC_EXTINT_6_Handler
                0x00009a6e                PendSV_Handler
                0x00009a6e                TC7_Handler
                0x00009a6e                TCC4_MC0_Handler
                0x00009a6e                EVSYS_3_Handler
                0x00009a6e                QSPI_Handler
                0x00009a6e                TCC2_MC0_Handler
                0x00009a6e                PDEC_OTHER_Handler
                0x00009a6e                TCC3_MC0_Handler
                0x00009a6e                PDEC_MC1_Handler
                0x00009a6e                TCC2_MC1_Handler
                0x00009a6e                OSCCTRL_XOSC1_Handler
                0x00009a6e                PDEC_MC0_Handler
                0x00009a6e                EIC_EXTINT_4_Handler
                0x00009a6e                SERCOM0_OTHER_Handler
                0x00009a6e                EVSYS_OTHER_Handler
                0x00009a6e                SERCOM0_0_Handler
                0x00009a6e                RTC_Handler
                0x00009a6e                TCC1_MC0_Handler
                0x00009a6e                SERCOM1_OTHER_Handler
                0x00009a6e                TCC2_OTHER_Handler
                0x00009a6e                EIC_EXTINT_11_Handler
                0x00009a6e                SUPC_BODDET_Handler
                0x00009a6e                EIC_EXTINT_14_Handler
                0x00009a6e                OSC32KCTRL_Handler
                0x00009a6e                SERCOM6_2_Handler
                0x00009a6e                EVSYS_1_Handler
                0x00009a6e                TC6_Handler
                0x00009a6e                TCC4_MC1_Handler
                0x00009a6e                SUPC_OTHER_Handler
                0x00009a6e                WDT_Handler
                0x00009a6e                CAN0_Handler
                0x00009a6e                EIC_EXTINT_15_Handler
                0x00009a6e                SERCOM6_0_Handler
                0x00009a6e                EIC_EXTINT_1_Handler
                0x00009a6e                TCC3_MC1_Handler
                0x00009a6e                SERCOM5_0_Handler
                0x00009a6e                TC4_Handler
                0x00009a6e                TC1_Handler
                0x00009a6e                TCC1_MC1_Handler
                0x00009a6e                EIC_EXTINT_0_Handler
                0x00009a6e                TCC1_OTHER_Handler
                0x00009a6e                PAC_Handler
                0x00009a6e                Dummy_Handler
                0x00009a6e                DAC_RESRDY_0_Handler
                0x00009a6e                SERCOM5_1_Handler
                0x00009a6e                TCC0_MC4_Handler
                0x00009a6e                USB_TRCPT1_Handler
                0x00009a6e                SERCOM0_1_Handler
                0x00009a6e                TCC0_MC3_Handler
                0x00009a6e                EIC_EXTINT_12_Handler
                0x00009a6e                OSCCTRL_DPLL0_Handler
                0x00009a6e                SERCOM6_OTHER_Handler
                0x00009a6e                SERCOM7_1_Handler
                0x00009a6e                SERCOM5_OTHER_Handler
                0x00009a6e                PM_Handler
                0x00009a6e                OSCCTRL_DFLL_Handler
                0x00009a6e                SERCOM7_0_Handler
                0x00009a6e                DAC_RESRDY_1_Handler
                0x00009a6e                USB_OTHER_Handler
                0x00009a6e                GMAC_Handler
                0x00009a6e                SDHC1_Handler
                0x00009a6e                SERCOM7_2_Handler
                0x00009a6e                CAN1_Handler
                0x00009a6e                TCC0_OTHER_Handler
                0x00009a6e                EIC_EXTINT_10_Handler
                0x00009a6e                TCC1_MC3_Handler
                0x00009a6e                OSCCTRL_XOSC0_Handler
                0x00009a6e                SERCOM6_1_Handler
                0x00009a6e                TCC0_MC0_Handler
                0x00009a6e                EIC_EXTINT_2_Handler
                0x00009a6e                SDHC0_Handler
                0x00009a6e                SERCOM1_1_Handler
                0x00009a6e                I2S_Handler
                0x00009a6e                PCC_Handler
                0x00009a6e                TCC3_OTHER_Handler
                0x00009a6e                EIC_EXTINT_13_Handler
                0x00009a6e                SERCOM1_0_Handler
                0x00009a6e                PUKCC_Handler
                0x00009a6e                SERCOM1_2_Handler
                0x00009a6e                SERCOM3_0_Handler
                0x00009a6e                TCC1_MC2_Handler
                0x00009a6e                ADC1_RESRDY_Handler
                0x00009a6e                NVMCTRL_1_Handler
                0x00009a6e                SERCOM5_2_Handler
                0x00009a6e                DAC_EMPTY_1_Handler
                0x00009a6e                ADC1_OTHER_Handler
                0x00009a6e                OSCCTRL_DPLL1_Handler
                0x00009a6e                EIC_EXTINT_3_Handler
                0x00009a6e                SERCOM3_OTHER_Handler
                0x00009a6e                EIC_EXTINT_8_Handler
                0x00009a6e                NVMCTRL_0_Handler
                0x00009a6e                ADC0_RESRDY_Handler
                0x00009a6e                ADC0_OTHER_Handler
                0x00009a6e                MCLK_Handler
                0x00009a6e                SERCOM7_OTHER_Handler
                0x00009a6e                EVSYS_2_Handler
                0x00009a6e                FREQM_Handler
                0x00009a6e                TC0_Handler
                0x00009a6e                TCC0_MC1_Handler
                0x00009a6e                RAMECC_Handler
                0x00009a6e                TC5_Handler
                0x00009a6e                AES_Handler
                0x00009a6e                ICM_Handler
                0x00009a6e                TCC0_MC2_Handler

.text.NonMaskableInt_Handler%459
                0x00009ee2        0x2
 .text.NonMaskableInt_Handler
                0x00009ee2        0x2 build/sam_e54_xpro_winc1500/production/_ext/231993977/exceptions.o
                0x00009ee2                NonMaskableInt_Handler

.text.HardFault_Handler%460
                0x0000a712        0x2
 .text.HardFault_Handler
                0x0000a712        0x2 build/sam_e54_xpro_winc1500/production/_ext/231993977/exceptions.o
                0x0000a712                HardFault_Handler

.text.DebugMonitor_Handler%461
                0x0000aa3e        0x2
 .text.DebugMonitor_Handler
                0x0000aa3e        0x2 build/sam_e54_xpro_winc1500/production/_ext/231993977/exceptions.o
                0x0000aa3e                DebugMonitor_Handler

.text.MemoryManagement_Handler%462
                0x0000b332        0x2
 .text.MemoryManagement_Handler
                0x0000b332        0x2 build/sam_e54_xpro_winc1500/production/_ext/231993977/exceptions.o
                0x0000b332                MemoryManagement_Handler

.text.BusFault_Handler%463
                0x0000b42a        0x2
 .text.BusFault_Handler
                0x0000b42a        0x2 build/sam_e54_xpro_winc1500/production/_ext/231993977/exceptions.o
                0x0000b42a                BusFault_Handler

.text.UsageFault_Handler%464
                0x0000bb76        0x2
 .text.UsageFault_Handler
                0x0000bb76        0x2 build/sam_e54_xpro_winc1500/production/_ext/231993977/exceptions.o
                0x0000bb76                UsageFault_Handler

.text.Dummy_App_Func%465
                0x0000c2d2        0x2
 .text.Dummy_App_Func
                0x0000c2d2        0x2 build/sam_e54_xpro_winc1500/production/_ext/231993977/startup_xc32.o
                0x0000c2d2                _on_reset
                0x0000c2d2                _on_bootstrap
                0x0000c2d2                __xc32_on_reset
                0x0000c2d2                Dummy_App_Func
                0x0000c2d2                __xc32_on_bootstrap

.text.__malloc_lock%466
                0x0000c3c2        0x2
 .text.__malloc_lock
                0x0000c3c2        0x2 c:/program files/microchip/xc32/v3.01/bin/bin/../../lib/gcc/pic32c/8.3.1/../../../../pic32c/lib/thumb/v7e-m+fp/hard\libc_nano.a(lib_a-mlock.o)
                0x0000c3c2                __malloc_lock

.text.__malloc_unlock%467
                0x0000c892        0x2
 .text.__malloc_unlock
                0x0000c892        0x2 c:/program files/microchip/xc32/v3.01/bin/bin/../../lib/gcc/pic32c/8.3.1/../../../../pic32c/lib/thumb/v7e-m+fp/hard\libc_nano.a(lib_a-mlock.o)
                0x0000c892                __malloc_unlock

.text.__env_lock%468
                0x0000ca72        0x2
 .text.__env_lock
                0x0000ca72        0x2 c:/program files/microchip/xc32/v3.01/bin/bin/../../lib/gcc/pic32c/8.3.1/../../../../pic32c/lib/thumb/v7e-m+fp/hard\libc_nano.a(lib_a-envlock.o)
                0x0000ca72                __env_lock

.text.__env_unlock%469
                0x0000cb52        0x2
 .text.__env_unlock
                0x0000cb52        0x2 c:/program files/microchip/xc32/v3.01/bin/bin/../../lib/gcc/pic32c/8.3.1/../../../../pic32c/lib/thumb/v7e-m+fp/hard\libc_nano.a(lib_a-envlock.o)
                0x0000cb52                __env_unlock
